
bomb:     file format elf32-i386


Disassembly of section .init:

080487d8 <_init>:
 80487d8:	53                   	push   %ebx
 80487d9:	83 ec 08             	sub    $0x8,%esp
 80487dc:	e8 00 00 00 00       	call   80487e1 <_init+0x9>
 80487e1:	5b                   	pop    %ebx
 80487e2:	81 c3 13 48 00 00    	add    $0x4813,%ebx
 80487e8:	8b 83 fc ff ff ff    	mov    -0x4(%ebx),%eax
 80487ee:	85 c0                	test   %eax,%eax
 80487f0:	74 05                	je     80487f7 <_init+0x1f>
 80487f2:	e8 09 01 00 00       	call   8048900 <__gmon_start__@plt>
 80487f7:	e8 c4 02 00 00       	call   8048ac0 <frame_dummy>
 80487fc:	e8 af 1d 00 00       	call   804a5b0 <__do_global_ctors_aux>
 8048801:	83 c4 08             	add    $0x8,%esp
 8048804:	5b                   	pop    %ebx
 8048805:	c3                   	ret    

Disassembly of section .plt:

08048810 <read@plt-0x10>:
 8048810:	ff 35 f8 cf 04 08    	pushl  0x804cff8
 8048816:	ff 25 fc cf 04 08    	jmp    *0x804cffc
 804881c:	00 00                	add    %al,(%eax)
	...

08048820 <read@plt>:
 8048820:	ff 25 00 d0 04 08    	jmp    *0x804d000
 8048826:	68 00 00 00 00       	push   $0x0
 804882b:	e9 e0 ff ff ff       	jmp    8048810 <_init+0x38>

08048830 <fflush@plt>:
 8048830:	ff 25 04 d0 04 08    	jmp    *0x804d004
 8048836:	68 08 00 00 00       	push   $0x8
 804883b:	e9 d0 ff ff ff       	jmp    8048810 <_init+0x38>

08048840 <fgets@plt>:
 8048840:	ff 25 08 d0 04 08    	jmp    *0x804d008
 8048846:	68 10 00 00 00       	push   $0x10
 804884b:	e9 c0 ff ff ff       	jmp    8048810 <_init+0x38>

08048850 <signal@plt>:
 8048850:	ff 25 0c d0 04 08    	jmp    *0x804d00c
 8048856:	68 18 00 00 00       	push   $0x18
 804885b:	e9 b0 ff ff ff       	jmp    8048810 <_init+0x38>

08048860 <sleep@plt>:
 8048860:	ff 25 10 d0 04 08    	jmp    *0x804d010
 8048866:	68 20 00 00 00       	push   $0x20
 804886b:	e9 a0 ff ff ff       	jmp    8048810 <_init+0x38>

08048870 <alarm@plt>:
 8048870:	ff 25 14 d0 04 08    	jmp    *0x804d014
 8048876:	68 28 00 00 00       	push   $0x28
 804887b:	e9 90 ff ff ff       	jmp    8048810 <_init+0x38>

08048880 <__stack_chk_fail@plt>:
 8048880:	ff 25 18 d0 04 08    	jmp    *0x804d018
 8048886:	68 30 00 00 00       	push   $0x30
 804888b:	e9 80 ff ff ff       	jmp    8048810 <_init+0x38>

08048890 <fwrite@plt>:
 8048890:	ff 25 1c d0 04 08    	jmp    *0x804d01c
 8048896:	68 38 00 00 00       	push   $0x38
 804889b:	e9 70 ff ff ff       	jmp    8048810 <_init+0x38>

080488a0 <strcpy@plt>:
 80488a0:	ff 25 20 d0 04 08    	jmp    *0x804d020
 80488a6:	68 40 00 00 00       	push   $0x40
 80488ab:	e9 60 ff ff ff       	jmp    8048810 <_init+0x38>

080488b0 <gethostname@plt>:
 80488b0:	ff 25 24 d0 04 08    	jmp    *0x804d024
 80488b6:	68 48 00 00 00       	push   $0x48
 80488bb:	e9 50 ff ff ff       	jmp    8048810 <_init+0x38>

080488c0 <getenv@plt>:
 80488c0:	ff 25 28 d0 04 08    	jmp    *0x804d028
 80488c6:	68 50 00 00 00       	push   $0x50
 80488cb:	e9 40 ff ff ff       	jmp    8048810 <_init+0x38>

080488d0 <puts@plt>:
 80488d0:	ff 25 2c d0 04 08    	jmp    *0x804d02c
 80488d6:	68 58 00 00 00       	push   $0x58
 80488db:	e9 30 ff ff ff       	jmp    8048810 <_init+0x38>

080488e0 <__memmove_chk@plt>:
 80488e0:	ff 25 30 d0 04 08    	jmp    *0x804d030
 80488e6:	68 60 00 00 00       	push   $0x60
 80488eb:	e9 20 ff ff ff       	jmp    8048810 <_init+0x38>

080488f0 <__memcpy_chk@plt>:
 80488f0:	ff 25 34 d0 04 08    	jmp    *0x804d034
 80488f6:	68 68 00 00 00       	push   $0x68
 80488fb:	e9 10 ff ff ff       	jmp    8048810 <_init+0x38>

08048900 <__gmon_start__@plt>:
 8048900:	ff 25 38 d0 04 08    	jmp    *0x804d038
 8048906:	68 70 00 00 00       	push   $0x70
 804890b:	e9 00 ff ff ff       	jmp    8048810 <_init+0x38>

08048910 <exit@plt>:
 8048910:	ff 25 3c d0 04 08    	jmp    *0x804d03c
 8048916:	68 78 00 00 00       	push   $0x78
 804891b:	e9 f0 fe ff ff       	jmp    8048810 <_init+0x38>

08048920 <__libc_start_main@plt>:
 8048920:	ff 25 40 d0 04 08    	jmp    *0x804d040
 8048926:	68 80 00 00 00       	push   $0x80
 804892b:	e9 e0 fe ff ff       	jmp    8048810 <_init+0x38>

08048930 <write@plt>:
 8048930:	ff 25 44 d0 04 08    	jmp    *0x804d044
 8048936:	68 88 00 00 00       	push   $0x88
 804893b:	e9 d0 fe ff ff       	jmp    8048810 <_init+0x38>

08048940 <strcasecmp@plt>:
 8048940:	ff 25 48 d0 04 08    	jmp    *0x804d048
 8048946:	68 90 00 00 00       	push   $0x90
 804894b:	e9 c0 fe ff ff       	jmp    8048810 <_init+0x38>

08048950 <__isoc99_sscanf@plt>:
 8048950:	ff 25 4c d0 04 08    	jmp    *0x804d04c
 8048956:	68 98 00 00 00       	push   $0x98
 804895b:	e9 b0 fe ff ff       	jmp    8048810 <_init+0x38>

08048960 <fopen@plt>:
 8048960:	ff 25 50 d0 04 08    	jmp    *0x804d050
 8048966:	68 a0 00 00 00       	push   $0xa0
 804896b:	e9 a0 fe ff ff       	jmp    8048810 <_init+0x38>

08048970 <__errno_location@plt>:
 8048970:	ff 25 54 d0 04 08    	jmp    *0x804d054
 8048976:	68 a8 00 00 00       	push   $0xa8
 804897b:	e9 90 fe ff ff       	jmp    8048810 <_init+0x38>

08048980 <gai_strerror@plt>:
 8048980:	ff 25 58 d0 04 08    	jmp    *0x804d058
 8048986:	68 b0 00 00 00       	push   $0xb0
 804898b:	e9 80 fe ff ff       	jmp    8048810 <_init+0x38>

08048990 <__printf_chk@plt>:
 8048990:	ff 25 5c d0 04 08    	jmp    *0x804d05c
 8048996:	68 b8 00 00 00       	push   $0xb8
 804899b:	e9 70 fe ff ff       	jmp    8048810 <_init+0x38>

080489a0 <socket@plt>:
 80489a0:	ff 25 60 d0 04 08    	jmp    *0x804d060
 80489a6:	68 c0 00 00 00       	push   $0xc0
 80489ab:	e9 60 fe ff ff       	jmp    8048810 <_init+0x38>

080489b0 <getaddrinfo@plt>:
 80489b0:	ff 25 64 d0 04 08    	jmp    *0x804d064
 80489b6:	68 c8 00 00 00       	push   $0xc8
 80489bb:	e9 50 fe ff ff       	jmp    8048810 <_init+0x38>

080489c0 <__fprintf_chk@plt>:
 80489c0:	ff 25 68 d0 04 08    	jmp    *0x804d068
 80489c6:	68 d0 00 00 00       	push   $0xd0
 80489cb:	e9 40 fe ff ff       	jmp    8048810 <_init+0x38>

080489d0 <gethostbyname@plt>:
 80489d0:	ff 25 6c d0 04 08    	jmp    *0x804d06c
 80489d6:	68 d8 00 00 00       	push   $0xd8
 80489db:	e9 30 fe ff ff       	jmp    8048810 <_init+0x38>

080489e0 <strtol@plt>:
 80489e0:	ff 25 70 d0 04 08    	jmp    *0x804d070
 80489e6:	68 e0 00 00 00       	push   $0xe0
 80489eb:	e9 20 fe ff ff       	jmp    8048810 <_init+0x38>

080489f0 <connect@plt>:
 80489f0:	ff 25 74 d0 04 08    	jmp    *0x804d074
 80489f6:	68 e8 00 00 00       	push   $0xe8
 80489fb:	e9 10 fe ff ff       	jmp    8048810 <_init+0x38>

08048a00 <close@plt>:
 8048a00:	ff 25 78 d0 04 08    	jmp    *0x804d078
 8048a06:	68 f0 00 00 00       	push   $0xf0
 8048a0b:	e9 00 fe ff ff       	jmp    8048810 <_init+0x38>

08048a10 <__ctype_b_loc@plt>:
 8048a10:	ff 25 7c d0 04 08    	jmp    *0x804d07c
 8048a16:	68 f8 00 00 00       	push   $0xf8
 8048a1b:	e9 f0 fd ff ff       	jmp    8048810 <_init+0x38>

08048a20 <__sprintf_chk@plt>:
 8048a20:	ff 25 80 d0 04 08    	jmp    *0x804d080
 8048a26:	68 00 01 00 00       	push   $0x100
 8048a2b:	e9 e0 fd ff ff       	jmp    8048810 <_init+0x38>

Disassembly of section .text:

08048a30 <_start>:
 8048a30:	31 ed                	xor    %ebp,%ebp
 8048a32:	5e                   	pop    %esi
 8048a33:	89 e1                	mov    %esp,%ecx
 8048a35:	83 e4 f0             	and    $0xfffffff0,%esp
 8048a38:	50                   	push   %eax
 8048a39:	54                   	push   %esp
 8048a3a:	52                   	push   %edx
 8048a3b:	68 a0 a5 04 08       	push   $0x804a5a0
 8048a40:	68 30 a5 04 08       	push   $0x804a530
 8048a45:	51                   	push   %ecx
 8048a46:	56                   	push   %esi
 8048a47:	68 e4 8a 04 08       	push   $0x8048ae4
 8048a4c:	e8 cf fe ff ff       	call   8048920 <__libc_start_main@plt>
 8048a51:	f4                   	hlt    
 8048a52:	90                   	nop
 8048a53:	90                   	nop
 8048a54:	90                   	nop
 8048a55:	90                   	nop
 8048a56:	90                   	nop
 8048a57:	90                   	nop
 8048a58:	90                   	nop
 8048a59:	90                   	nop
 8048a5a:	90                   	nop
 8048a5b:	90                   	nop
 8048a5c:	90                   	nop
 8048a5d:	90                   	nop
 8048a5e:	90                   	nop
 8048a5f:	90                   	nop

08048a60 <__do_global_dtors_aux>:
 8048a60:	55                   	push   %ebp
 8048a61:	89 e5                	mov    %esp,%ebp
 8048a63:	53                   	push   %ebx
 8048a64:	83 ec 04             	sub    $0x4,%esp
 8048a67:	80 3d 04 d8 04 08 00 	cmpb   $0x0,0x804d804
 8048a6e:	75 3f                	jne    8048aaf <__do_global_dtors_aux+0x4f>
 8048a70:	a1 08 d8 04 08       	mov    0x804d808,%eax
 8048a75:	bb 20 cf 04 08       	mov    $0x804cf20,%ebx
 8048a7a:	81 eb 1c cf 04 08    	sub    $0x804cf1c,%ebx
 8048a80:	c1 fb 02             	sar    $0x2,%ebx
 8048a83:	83 eb 01             	sub    $0x1,%ebx
 8048a86:	39 d8                	cmp    %ebx,%eax
 8048a88:	73 1e                	jae    8048aa8 <__do_global_dtors_aux+0x48>
 8048a8a:	8d b6 00 00 00 00    	lea    0x0(%esi),%esi
 8048a90:	83 c0 01             	add    $0x1,%eax
 8048a93:	a3 08 d8 04 08       	mov    %eax,0x804d808
 8048a98:	ff 14 85 1c cf 04 08 	call   *0x804cf1c(,%eax,4)
 8048a9f:	a1 08 d8 04 08       	mov    0x804d808,%eax
 8048aa4:	39 d8                	cmp    %ebx,%eax
 8048aa6:	72 e8                	jb     8048a90 <__do_global_dtors_aux+0x30>
 8048aa8:	c6 05 04 d8 04 08 01 	movb   $0x1,0x804d804
 8048aaf:	83 c4 04             	add    $0x4,%esp
 8048ab2:	5b                   	pop    %ebx
 8048ab3:	5d                   	pop    %ebp
 8048ab4:	c3                   	ret    
 8048ab5:	8d 74 26 00          	lea    0x0(%esi,%eiz,1),%esi
 8048ab9:	8d bc 27 00 00 00 00 	lea    0x0(%edi,%eiz,1),%edi

08048ac0 <frame_dummy>:
 8048ac0:	55                   	push   %ebp
 8048ac1:	89 e5                	mov    %esp,%ebp
 8048ac3:	83 ec 18             	sub    $0x18,%esp
 8048ac6:	a1 24 cf 04 08       	mov    0x804cf24,%eax
 8048acb:	85 c0                	test   %eax,%eax
 8048acd:	74 12                	je     8048ae1 <frame_dummy+0x21>
 8048acf:	b8 00 00 00 00       	mov    $0x0,%eax
 8048ad4:	85 c0                	test   %eax,%eax
 8048ad6:	74 09                	je     8048ae1 <frame_dummy+0x21>
 8048ad8:	c7 04 24 24 cf 04 08 	movl   $0x804cf24,(%esp)
 8048adf:	ff d0                	call   *%eax
 8048ae1:	c9                   	leave  
 8048ae2:	c3                   	ret    
 8048ae3:	90                   	nop

08048ae4 <main>:
 8048ae4:	55                   	push   %ebp
 8048ae5:	89 e5                	mov    %esp,%ebp
 8048ae7:	53                   	push   %ebx
 8048ae8:	83 e4 f0             	and    $0xfffffff0,%esp
 8048aeb:	83 ec 10             	sub    $0x10,%esp
 8048aee:	8b 45 08             	mov    0x8(%ebp),%eax
 8048af1:	8b 5d 0c             	mov    0xc(%ebp),%ebx
 8048af4:	83 f8 01             	cmp    $0x1,%eax
 8048af7:	75 0c                	jne    8048b05 <main+0x21>
 8048af9:	a1 e4 d7 04 08       	mov    0x804d7e4,%eax
 8048afe:	a3 10 d8 04 08       	mov    %eax,0x804d810
 8048b03:	eb 74                	jmp    8048b79 <main+0x95>
 8048b05:	83 f8 02             	cmp    $0x2,%eax
 8048b08:	75 49                	jne    8048b53 <main+0x6f>
 8048b0a:	c7 44 24 04 08 a6 04 	movl   $0x804a608,0x4(%esp)
 8048b11:	08 
 8048b12:	8b 43 04             	mov    0x4(%ebx),%eax
 8048b15:	89 04 24             	mov    %eax,(%esp)
 8048b18:	e8 43 fe ff ff       	call   8048960 <fopen@plt>
 8048b1d:	a3 10 d8 04 08       	mov    %eax,0x804d810
 8048b22:	85 c0                	test   %eax,%eax
 8048b24:	75 53                	jne    8048b79 <main+0x95>
 8048b26:	8b 43 04             	mov    0x4(%ebx),%eax
 8048b29:	89 44 24 0c          	mov    %eax,0xc(%esp)
 8048b2d:	8b 03                	mov    (%ebx),%eax
 8048b2f:	89 44 24 08          	mov    %eax,0x8(%esp)
 8048b33:	c7 44 24 04 0a a6 04 	movl   $0x804a60a,0x4(%esp)
 8048b3a:	08 
 8048b3b:	c7 04 24 01 00 00 00 	movl   $0x1,(%esp)
 8048b42:	e8 49 fe ff ff       	call   8048990 <__printf_chk@plt>
 8048b47:	c7 04 24 08 00 00 00 	movl   $0x8,(%esp)
 8048b4e:	e8 bd fd ff ff       	call   8048910 <exit@plt>
 8048b53:	8b 03                	mov    (%ebx),%eax
 8048b55:	89 44 24 08          	mov    %eax,0x8(%esp)
 8048b59:	c7 44 24 04 27 a6 04 	movl   $0x804a627,0x4(%esp)
 8048b60:	08 
 8048b61:	c7 04 24 01 00 00 00 	movl   $0x1,(%esp)
 8048b68:	e8 23 fe ff ff       	call   8048990 <__printf_chk@plt>
 8048b6d:	c7 04 24 08 00 00 00 	movl   $0x8,(%esp)
 8048b74:	e8 97 fd ff ff       	call   8048910 <exit@plt>
 8048b79:	e8 b0 07 00 00       	call   804932e <initialize_bomb>
 8048b7e:	c7 04 24 7c a6 04 08 	movl   $0x804a67c,(%esp)
 8048b85:	e8 46 fd ff ff       	call   80488d0 <puts@plt>
 8048b8a:	c7 04 24 bc a6 04 08 	movl   $0x804a6bc,(%esp)
 8048b91:	e8 3a fd ff ff       	call   80488d0 <puts@plt>
 8048b96:	e8 32 0b 00 00       	call   80496cd <read_line>
 8048b9b:	89 04 24             	mov    %eax,(%esp)
 8048b9e:	e8 ad 00 00 00       	call   8048c50 <phase_1>
 8048ba3:	e8 83 0c 00 00       	call   804982b <phase_defused>
 8048ba8:	c7 04 24 fc a6 04 08 	movl   $0x804a6fc,(%esp)
 8048baf:	e8 1c fd ff ff       	call   80488d0 <puts@plt>
 8048bb4:	e8 14 0b 00 00       	call   80496cd <read_line>
 8048bb9:	89 04 24             	mov    %eax,(%esp)
 8048bbc:	e8 b3 00 00 00       	call   8048c74 <phase_2>
 8048bc1:	e8 65 0c 00 00       	call   804982b <phase_defused>
 8048bc6:	c7 04 24 41 a6 04 08 	movl   $0x804a641,(%esp)
 8048bcd:	e8 fe fc ff ff       	call   80488d0 <puts@plt>
 8048bd2:	e8 f6 0a 00 00       	call   80496cd <read_line>
 8048bd7:	89 04 24             	mov    %eax,(%esp)
 8048bda:	e8 e3 00 00 00       	call   8048cc2 <phase_3>
 8048bdf:	e8 47 0c 00 00       	call   804982b <phase_defused>
 8048be4:	c7 04 24 28 a7 04 08 	movl   $0x804a728,(%esp)
 8048beb:	e8 e0 fc ff ff       	call   80488d0 <puts@plt>
 8048bf0:	e8 d8 0a 00 00       	call   80496cd <read_line>
 8048bf5:	89 04 24             	mov    %eax,(%esp)
 8048bf8:	e8 8c 02 00 00       	call   8048e89 <phase_4>
 8048bfd:	e8 29 0c 00 00       	call   804982b <phase_defused>
 8048c02:	c7 04 24 5b a6 04 08 	movl   $0x804a65b,(%esp)
 8048c09:	e8 c2 fc ff ff       	call   80488d0 <puts@plt>
 8048c0e:	e8 ba 0a 00 00       	call   80496cd <read_line>
 8048c13:	89 04 24             	mov    %eax,(%esp)
 8048c16:	e8 d0 02 00 00       	call   8048eeb <phase_5>
 8048c1b:	e8 0b 0c 00 00       	call   804982b <phase_defused>
 8048c20:	c7 04 24 48 a7 04 08 	movl   $0x804a748,(%esp)
 8048c27:	e8 a4 fc ff ff       	call   80488d0 <puts@plt>
 8048c2c:	e8 9c 0a 00 00       	call   80496cd <read_line>
 8048c31:	89 04 24             	mov    %eax,(%esp)
 8048c34:	e8 45 03 00 00       	call   8048f7e <phase_6>
 8048c39:	e8 ed 0b 00 00       	call   804982b <phase_defused>
 8048c3e:	b8 00 00 00 00       	mov    $0x0,%eax
 8048c43:	8b 5d fc             	mov    -0x4(%ebp),%ebx
 8048c46:	c9                   	leave  
 8048c47:	c3                   	ret    
 8048c48:	90                   	nop
 8048c49:	90                   	nop
 8048c4a:	90                   	nop
 8048c4b:	90                   	nop
 8048c4c:	90                   	nop
 8048c4d:	90                   	nop
 8048c4e:	90                   	nop
 8048c4f:	90                   	nop

08048c50 <phase_1>:
 8048c50:	83 ec 1c             	sub    $0x1c,%esp
 8048c53:	c7 44 24 04 6c a7 04 	movl   $0x804a76c,0x4(%esp)
 8048c5a:	08 
 8048c5b:	8b 44 24 20          	mov    0x20(%esp),%eax
 8048c5f:	89 04 24             	mov    %eax,(%esp)
 8048c62:	e8 b8 05 00 00       	call   804921f <strings_check>
 8048c67:	85 c0                	test   %eax,%eax
 8048c69:	74 05                	je     8048c70 <phase_1+0x20>
 8048c6b:	e8 2a 0a 00 00       	call   804969a <explode_bomb>
 8048c70:	83 c4 1c             	add    $0x1c,%esp
 8048c73:	c3                   	ret    

08048c74 <phase_2>:
 8048c74:	53                   	push   %ebx
 8048c75:	83 ec 38             	sub    $0x38,%esp
 8048c78:	8d 44 24 18          	lea    0x18(%esp),%eax
 8048c7c:	89 44 24 04          	mov    %eax,0x4(%esp)
 8048c80:	8b 44 24 40          	mov    0x40(%esp),%eax
 8048c84:	89 04 24             	mov    %eax,(%esp)
 8048c87:	e8 4f 0b 00 00       	call   80497db <read_six_numbers>
 8048c8c:	83 7c 24 18 01       	cmpl   $0x1,0x18(%esp)
 8048c91:	7f 05                	jg     8048c98 <phase_2+0x24>
 8048c93:	e8 02 0a 00 00       	call   804969a <explode_bomb>
 8048c98:	bb 01 00 00 00       	mov    $0x1,%ebx
 8048c9d:	8b 44 9c 14          	mov    0x14(%esp,%ebx,4),%eax
 8048ca1:	01 c0                	add    %eax,%eax
 8048ca3:	89 da                	mov    %ebx,%edx
 8048ca5:	83 e2 01             	and    $0x1,%edx
 8048ca8:	29 d0                	sub    %edx,%eax
 8048caa:	39 44 9c 18          	cmp    %eax,0x18(%esp,%ebx,4)
 8048cae:	74 05                	je     8048cb5 <phase_2+0x41>
 8048cb0:	e8 e5 09 00 00       	call   804969a <explode_bomb>
 8048cb5:	83 c3 01             	add    $0x1,%ebx
 8048cb8:	83 fb 06             	cmp    $0x6,%ebx
 8048cbb:	75 e0                	jne    8048c9d <phase_2+0x29>
 8048cbd:	83 c4 38             	add    $0x38,%esp
 8048cc0:	5b                   	pop    %ebx
 8048cc1:	c3                   	ret    

08048cc2 <phase_3>:
 8048cc2:	83 ec 3c             	sub    $0x3c,%esp
 8048cc5:	8d 44 24 28          	lea    0x28(%esp),%eax
 8048cc9:	89 44 24 10          	mov    %eax,0x10(%esp)
 8048ccd:	8d 44 24 2f          	lea    0x2f(%esp),%eax
 8048cd1:	89 44 24 0c          	mov    %eax,0xc(%esp)
 8048cd5:	8d 44 24 24          	lea    0x24(%esp),%eax
 8048cd9:	89 44 24 08          	mov    %eax,0x8(%esp)
 8048cdd:	c7 44 24 04 c3 a7 04 	movl   $0x804a7c3,0x4(%esp)
 8048ce4:	08 
 8048ce5:	8b 44 24 40          	mov    0x40(%esp),%eax
 8048ce9:	89 04 24             	mov    %eax,(%esp)
 8048cec:	e8 5f fc ff ff       	call   8048950 <__isoc99_sscanf@plt>
 8048cf1:	8b 54 24 28          	mov    0x28(%esp),%edx
 8048cf5:	89 d1                	mov    %edx,%ecx
 8048cf7:	c1 e9 1f             	shr    $0x1f,%ecx
 8048cfa:	01 ca                	add    %ecx,%edx
 8048cfc:	d1 fa                	sar    %edx
 8048cfe:	89 54 24 28          	mov    %edx,0x28(%esp)
 8048d02:	83 f8 02             	cmp    $0x2,%eax
 8048d05:	7f 05                	jg     8048d0c <phase_3+0x4a>
 8048d07:	e8 8e 09 00 00       	call   804969a <explode_bomb>
 8048d0c:	83 7c 24 24 07       	cmpl   $0x7,0x24(%esp)
 8048d11:	0f 87 fc 00 00 00    	ja     8048e13 <phase_3+0x151>
 8048d17:	8b 44 24 24          	mov    0x24(%esp),%eax
 8048d1b:	ff 24 85 e0 a7 04 08 	jmp    *0x804a7e0(,%eax,4)
 8048d22:	b8 63 00 00 00       	mov    $0x63,%eax
 8048d27:	81 7c 24 28 6e 0e 00 	cmpl   $0xe6e,0x28(%esp)
 8048d2e:	00 
 8048d2f:	0f 84 e8 00 00 00    	je     8048e1d <phase_3+0x15b>
 8048d35:	e8 60 09 00 00       	call   804969a <explode_bomb>
 8048d3a:	b8 63 00 00 00       	mov    $0x63,%eax
 8048d3f:	e9 d9 00 00 00       	jmp    8048e1d <phase_3+0x15b>
 8048d44:	b8 72 00 00 00       	mov    $0x72,%eax
 8048d49:	81 7c 24 28 0d 03 00 	cmpl   $0x30d,0x28(%esp)
 8048d50:	00 
 8048d51:	0f 84 c6 00 00 00    	je     8048e1d <phase_3+0x15b>
 8048d57:	e8 3e 09 00 00       	call   804969a <explode_bomb>
 8048d5c:	b8 72 00 00 00       	mov    $0x72,%eax
 8048d61:	e9 b7 00 00 00       	jmp    8048e1d <phase_3+0x15b>
 8048d66:	b8 6b 00 00 00       	mov    $0x6b,%eax
 8048d6b:	81 7c 24 28 40 09 00 	cmpl   $0x940,0x28(%esp)
 8048d72:	00 
 8048d73:	0f 84 a4 00 00 00    	je     8048e1d <phase_3+0x15b>
 8048d79:	e8 1c 09 00 00       	call   804969a <explode_bomb>
 8048d7e:	b8 6b 00 00 00       	mov    $0x6b,%eax
 8048d83:	e9 95 00 00 00       	jmp    8048e1d <phase_3+0x15b>
 8048d88:	b8 6d 00 00 00       	mov    $0x6d,%eax
 8048d8d:	81 7c 24 28 cf 03 00 	cmpl   $0x3cf,0x28(%esp)
 8048d94:	00 
 8048d95:	0f 84 82 00 00 00    	je     8048e1d <phase_3+0x15b>
 8048d9b:	e8 fa 08 00 00       	call   804969a <explode_bomb>
 8048da0:	b8 6d 00 00 00       	mov    $0x6d,%eax
 8048da5:	eb 76                	jmp    8048e1d <phase_3+0x15b>
 8048da7:	b8 69 00 00 00       	mov    $0x69,%eax
 8048dac:	81 7c 24 28 1b 01 00 	cmpl   $0x11b,0x28(%esp)
 8048db3:	00 
 8048db4:	74 67                	je     8048e1d <phase_3+0x15b>
 8048db6:	e8 df 08 00 00       	call   804969a <explode_bomb>
 8048dbb:	b8 69 00 00 00       	mov    $0x69,%eax
 8048dc0:	eb 5b                	jmp    8048e1d <phase_3+0x15b>
 8048dc2:	b8 65 00 00 00       	mov    $0x65,%eax
 8048dc7:	81 7c 24 28 cf 0f 00 	cmpl   $0xfcf,0x28(%esp)
 8048dce:	00 
 8048dcf:	74 4c                	je     8048e1d <phase_3+0x15b>
 8048dd1:	e8 c4 08 00 00       	call   804969a <explode_bomb>
 8048dd6:	b8 65 00 00 00       	mov    $0x65,%eax
 8048ddb:	eb 40                	jmp    8048e1d <phase_3+0x15b>
 8048ddd:	b8 73 00 00 00       	mov    $0x73,%eax
 8048de2:	81 7c 24 28 0a 0b 00 	cmpl   $0xb0a,0x28(%esp)
 8048de9:	00 
 8048dea:	74 31                	je     8048e1d <phase_3+0x15b>
 8048dec:	e8 a9 08 00 00       	call   804969a <explode_bomb>
 8048df1:	b8 73 00 00 00       	mov    $0x73,%eax
 8048df6:	eb 25                	jmp    8048e1d <phase_3+0x15b>
 8048df8:	b8 6d 00 00 00       	mov    $0x6d,%eax
 8048dfd:	81 7c 24 28 46 0b 00 	cmpl   $0xb46,0x28(%esp)
 8048e04:	00 
 8048e05:	74 16                	je     8048e1d <phase_3+0x15b>
 8048e07:	e8 8e 08 00 00       	call   804969a <explode_bomb>
 8048e0c:	b8 6d 00 00 00       	mov    $0x6d,%eax
 8048e11:	eb 0a                	jmp    8048e1d <phase_3+0x15b>
 8048e13:	e8 82 08 00 00       	call   804969a <explode_bomb>
 8048e18:	b8 78 00 00 00       	mov    $0x78,%eax
 8048e1d:	3a 44 24 2f          	cmp    0x2f(%esp),%al
 8048e21:	74 05                	je     8048e28 <phase_3+0x166>
 8048e23:	e8 72 08 00 00       	call   804969a <explode_bomb>
 8048e28:	83 c4 3c             	add    $0x3c,%esp
 8048e2b:	c3                   	ret    

08048e2c <func4>:
 8048e2c:	83 ec 1c             	sub    $0x1c,%esp
 8048e2f:	89 5c 24 10          	mov    %ebx,0x10(%esp)
 8048e33:	89 74 24 14          	mov    %esi,0x14(%esp)
 8048e37:	89 7c 24 18          	mov    %edi,0x18(%esp)
 8048e3b:	8b 74 24 20          	mov    0x20(%esp),%esi
 8048e3f:	8b 5c 24 24          	mov    0x24(%esp),%ebx
 8048e43:	85 f6                	test   %esi,%esi
 8048e45:	7e 2b                	jle    8048e72 <func4+0x46>
 8048e47:	83 fe 01             	cmp    $0x1,%esi
 8048e4a:	74 2b                	je     8048e77 <func4+0x4b>
 8048e4c:	89 5c 24 04          	mov    %ebx,0x4(%esp)
 8048e50:	8d 46 ff             	lea    -0x1(%esi),%eax
 8048e53:	89 04 24             	mov    %eax,(%esp)
 8048e56:	e8 d1 ff ff ff       	call   8048e2c <func4>
 8048e5b:	8d 3c 18             	lea    (%eax,%ebx,1),%edi
 8048e5e:	89 5c 24 04          	mov    %ebx,0x4(%esp)
 8048e62:	83 ee 02             	sub    $0x2,%esi
 8048e65:	89 34 24             	mov    %esi,(%esp)
 8048e68:	e8 bf ff ff ff       	call   8048e2c <func4>
 8048e6d:	8d 1c 07             	lea    (%edi,%eax,1),%ebx
 8048e70:	eb 05                	jmp    8048e77 <func4+0x4b>
 8048e72:	bb 00 00 00 00       	mov    $0x0,%ebx
 8048e77:	89 d8                	mov    %ebx,%eax
 8048e79:	8b 5c 24 10          	mov    0x10(%esp),%ebx
 8048e7d:	8b 74 24 14          	mov    0x14(%esp),%esi
 8048e81:	8b 7c 24 18          	mov    0x18(%esp),%edi
 8048e85:	83 c4 1c             	add    $0x1c,%esp
 8048e88:	c3                   	ret    

08048e89 <phase_4>:
 8048e89:	83 ec 2c             	sub    $0x2c,%esp
 8048e8c:	8d 44 24 18          	lea    0x18(%esp),%eax
 8048e90:	89 44 24 0c          	mov    %eax,0xc(%esp)
 8048e94:	8d 44 24 1c          	lea    0x1c(%esp),%eax
 8048e98:	89 44 24 08          	mov    %eax,0x8(%esp)
 8048e9c:	c7 44 24 04 c5 aa 04 	movl   $0x804aac5,0x4(%esp)
 8048ea3:	08 
 8048ea4:	8b 44 24 30          	mov    0x30(%esp),%eax
 8048ea8:	89 04 24             	mov    %eax,(%esp)
 8048eab:	e8 a0 fa ff ff       	call   8048950 <__isoc99_sscanf@plt>
 8048eb0:	83 f8 02             	cmp    $0x2,%eax
 8048eb3:	75 0e                	jne    8048ec3 <phase_4+0x3a>
 8048eb5:	8b 44 24 18          	mov    0x18(%esp),%eax
 8048eb9:	83 f8 01             	cmp    $0x1,%eax
 8048ebc:	7e 05                	jle    8048ec3 <phase_4+0x3a>
 8048ebe:	83 f8 04             	cmp    $0x4,%eax
 8048ec1:	7e 05                	jle    8048ec8 <phase_4+0x3f>
 8048ec3:	e8 d2 07 00 00       	call   804969a <explode_bomb>
 8048ec8:	8b 44 24 18          	mov    0x18(%esp),%eax
 8048ecc:	89 44 24 04          	mov    %eax,0x4(%esp)
 8048ed0:	c7 04 24 05 00 00 00 	movl   $0x5,(%esp)
 8048ed7:	e8 50 ff ff ff       	call   8048e2c <func4>
 8048edc:	3b 44 24 1c          	cmp    0x1c(%esp),%eax
 8048ee0:	74 05                	je     8048ee7 <phase_4+0x5e>
 8048ee2:	e8 b3 07 00 00       	call   804969a <explode_bomb>
 8048ee7:	83 c4 2c             	add    $0x2c,%esp
 8048eea:	c3                   	ret    

08048eeb <phase_5>:
 8048eeb:	56                   	push   %esi
 8048eec:	53                   	push   %ebx
 8048eed:	83 ec 24             	sub    $0x24,%esp
 8048ef0:	8b 5c 24 30          	mov    0x30(%esp),%ebx
 8048ef4:	65 a1 14 00 00 00    	mov    %gs:0x14,%eax
 8048efa:	89 44 24 1c          	mov    %eax,0x1c(%esp)
 8048efe:	31 c0                	xor    %eax,%eax
 8048f00:	89 1c 24             	mov    %ebx,(%esp)
 8048f03:	e8 87 02 00 00       	call   804918f <string_length>
 8048f08:	83 f8 06             	cmp    $0x6,%eax
 8048f0b:	74 05                	je     8048f12 <phase_5+0x27>
 8048f0d:	e8 88 07 00 00       	call   804969a <explode_bomb>
 8048f12:	b8 00 00 00 00       	mov    $0x0,%eax
 8048f17:	89 c6                	mov    %eax,%esi
 8048f19:	0f b6 14 03          	movzbl (%ebx,%eax,1),%edx
 8048f1d:	0f be ca             	movsbl %dl,%ecx
 8048f20:	83 e9 41             	sub    $0x41,%ecx
 8048f23:	80 fa 60             	cmp    $0x60,%dl
 8048f26:	7e 06                	jle    8048f2e <phase_5+0x43>
 8048f28:	0f be d2             	movsbl %dl,%edx
 8048f2b:	8d 4a 9f             	lea    -0x61(%edx),%ecx
 8048f2e:	83 e1 0f             	and    $0xf,%ecx
 8048f31:	0f b6 91 ed a9 04 08 	movzbl 0x804a9ed(%ecx),%edx
 8048f38:	88 54 34 15          	mov    %dl,0x15(%esp,%esi,1)
 8048f3c:	83 c0 01             	add    $0x1,%eax
 8048f3f:	83 f8 06             	cmp    $0x6,%eax
 8048f42:	75 d3                	jne    8048f17 <phase_5+0x2c>
 8048f44:	c6 44 24 1b 00       	movb   $0x0,0x1b(%esp)
 8048f49:	c7 44 24 04 cc a7 04 	movl   $0x804a7cc,0x4(%esp)
 8048f50:	08 
 8048f51:	8d 44 24 15          	lea    0x15(%esp),%eax
 8048f55:	89 04 24             	mov    %eax,(%esp)
 8048f58:	e8 4b 02 00 00       	call   80491a8 <strings_not_equal>
 8048f5d:	85 c0                	test   %eax,%eax
 8048f5f:	74 05                	je     8048f66 <phase_5+0x7b>
 8048f61:	e8 34 07 00 00       	call   804969a <explode_bomb>
 8048f66:	8b 44 24 1c          	mov    0x1c(%esp),%eax
 8048f6a:	65 33 05 14 00 00 00 	xor    %gs:0x14,%eax
 8048f71:	74 05                	je     8048f78 <phase_5+0x8d>
 8048f73:	e8 08 f9 ff ff       	call   8048880 <__stack_chk_fail@plt>
 8048f78:	83 c4 24             	add    $0x24,%esp
 8048f7b:	5b                   	pop    %ebx
 8048f7c:	5e                   	pop    %esi
 8048f7d:	c3                   	ret    

08048f7e <phase_6>:
 8048f7e:	56                   	push   %esi
 8048f7f:	53                   	push   %ebx
 8048f80:	83 ec 44             	sub    $0x44,%esp
 8048f83:	8d 44 24 10          	lea    0x10(%esp),%eax
 8048f87:	89 44 24 04          	mov    %eax,0x4(%esp)
 8048f8b:	8b 44 24 50          	mov    0x50(%esp),%eax
 8048f8f:	89 04 24             	mov    %eax,(%esp)
 8048f92:	e8 44 08 00 00       	call   80497db <read_six_numbers>
 8048f97:	be 00 00 00 00       	mov    $0x0,%esi
 8048f9c:	8b 44 b4 10          	mov    0x10(%esp,%esi,4),%eax
 8048fa0:	83 e8 01             	sub    $0x1,%eax
 8048fa3:	83 f8 05             	cmp    $0x5,%eax
 8048fa6:	76 05                	jbe    8048fad <phase_6+0x2f>
 8048fa8:	e8 ed 06 00 00       	call   804969a <explode_bomb>
 8048fad:	83 c6 01             	add    $0x1,%esi
 8048fb0:	83 fe 06             	cmp    $0x6,%esi
 8048fb3:	74 35                	je     8048fea <phase_6+0x6c>
 8048fb5:	89 f3                	mov    %esi,%ebx
 8048fb7:	8b 44 9c 10          	mov    0x10(%esp,%ebx,4),%eax
 8048fbb:	39 44 b4 0c          	cmp    %eax,0xc(%esp,%esi,4)
 8048fbf:	75 05                	jne    8048fc6 <phase_6+0x48>
 8048fc1:	e8 d4 06 00 00       	call   804969a <explode_bomb>
 8048fc6:	83 c3 01             	add    $0x1,%ebx
 8048fc9:	83 fb 05             	cmp    $0x5,%ebx
 8048fcc:	7e e9                	jle    8048fb7 <phase_6+0x39>
 8048fce:	66 90                	xchg   %ax,%ax
 8048fd0:	eb ca                	jmp    8048f9c <phase_6+0x1e>
 8048fd2:	8b 52 08             	mov    0x8(%edx),%edx
 8048fd5:	83 c0 01             	add    $0x1,%eax
 8048fd8:	39 c8                	cmp    %ecx,%eax
 8048fda:	75 f6                	jne    8048fd2 <phase_6+0x54>
 8048fdc:	89 54 b4 28          	mov    %edx,0x28(%esp,%esi,4)
 8048fe0:	83 c3 01             	add    $0x1,%ebx
 8048fe3:	83 fb 06             	cmp    $0x6,%ebx
 8048fe6:	75 07                	jne    8048fef <phase_6+0x71>
 8048fe8:	eb 1c                	jmp    8049006 <phase_6+0x88>
 8048fea:	bb 00 00 00 00       	mov    $0x0,%ebx
 8048fef:	89 de                	mov    %ebx,%esi
 8048ff1:	8b 4c 9c 10          	mov    0x10(%esp,%ebx,4),%ecx
 8048ff5:	b8 01 00 00 00       	mov    $0x1,%eax
 8048ffa:	ba 74 d1 04 08       	mov    $0x804d174,%edx
 8048fff:	83 f9 01             	cmp    $0x1,%ecx
 8049002:	7f ce                	jg     8048fd2 <phase_6+0x54>
 8049004:	eb d6                	jmp    8048fdc <phase_6+0x5e>
 8049006:	8b 5c 24 28          	mov    0x28(%esp),%ebx
 804900a:	8b 44 24 2c          	mov    0x2c(%esp),%eax
 804900e:	89 43 08             	mov    %eax,0x8(%ebx)
 8049011:	8b 54 24 30          	mov    0x30(%esp),%edx
 8049015:	89 50 08             	mov    %edx,0x8(%eax)
 8049018:	8b 44 24 34          	mov    0x34(%esp),%eax
 804901c:	89 42 08             	mov    %eax,0x8(%edx)
 804901f:	8b 54 24 38          	mov    0x38(%esp),%edx
 8049023:	89 50 08             	mov    %edx,0x8(%eax)
 8049026:	8b 44 24 3c          	mov    0x3c(%esp),%eax
 804902a:	89 42 08             	mov    %eax,0x8(%edx)
 804902d:	c7 40 08 00 00 00 00 	movl   $0x0,0x8(%eax)
 8049034:	be 05 00 00 00       	mov    $0x5,%esi
 8049039:	8b 43 08             	mov    0x8(%ebx),%eax
 804903c:	8b 10                	mov    (%eax),%edx
 804903e:	39 13                	cmp    %edx,(%ebx)
 8049040:	7d 05                	jge    8049047 <phase_6+0xc9>
 8049042:	e8 53 06 00 00       	call   804969a <explode_bomb>
 8049047:	8b 5b 08             	mov    0x8(%ebx),%ebx
 804904a:	83 ee 01             	sub    $0x1,%esi
 804904d:	75 ea                	jne    8049039 <phase_6+0xbb>
 804904f:	83 c4 44             	add    $0x44,%esp
 8049052:	5b                   	pop    %ebx
 8049053:	5e                   	pop    %esi
 8049054:	c3                   	ret    

08049055 <fun7>:
 8049055:	53                   	push   %ebx
 8049056:	83 ec 18             	sub    $0x18,%esp
 8049059:	8b 54 24 20          	mov    0x20(%esp),%edx
 804905d:	8b 4c 24 24          	mov    0x24(%esp),%ecx
 8049061:	85 d2                	test   %edx,%edx
 8049063:	74 37                	je     804909c <fun7+0x47>
 8049065:	8b 5a 08             	mov    0x8(%edx),%ebx
 8049068:	39 cb                	cmp    %ecx,%ebx
 804906a:	7e 12                	jle    804907e <fun7+0x29>
 804906c:	89 4c 24 04          	mov    %ecx,0x4(%esp)
 8049070:	8b 02                	mov    (%edx),%eax
 8049072:	89 04 24             	mov    %eax,(%esp)
 8049075:	e8 db ff ff ff       	call   8049055 <fun7>
 804907a:	01 c0                	add    %eax,%eax
 804907c:	eb 23                	jmp    80490a1 <fun7+0x4c>
 804907e:	b8 00 00 00 00       	mov    $0x0,%eax
 8049083:	39 cb                	cmp    %ecx,%ebx
 8049085:	74 1a                	je     80490a1 <fun7+0x4c>
 8049087:	89 4c 24 04          	mov    %ecx,0x4(%esp)
 804908b:	8b 42 04             	mov    0x4(%edx),%eax
 804908e:	89 04 24             	mov    %eax,(%esp)
 8049091:	e8 bf ff ff ff       	call   8049055 <fun7>
 8049096:	8d 44 00 01          	lea    0x1(%eax,%eax,1),%eax
 804909a:	eb 05                	jmp    80490a1 <fun7+0x4c>
 804909c:	b8 ff ff ff ff       	mov    $0xffffffff,%eax
 80490a1:	83 c4 18             	add    $0x18,%esp
 80490a4:	5b                   	pop    %ebx
 80490a5:	c3                   	ret    

080490a6 <secret_phase>:
 80490a6:	53                   	push   %ebx
 80490a7:	83 ec 18             	sub    $0x18,%esp
 80490aa:	e8 1e 06 00 00       	call   80496cd <read_line>
 80490af:	c7 44 24 08 0a 00 00 	movl   $0xa,0x8(%esp)
 80490b6:	00 
 80490b7:	c7 44 24 04 00 00 00 	movl   $0x0,0x4(%esp)
 80490be:	00 
 80490bf:	89 04 24             	mov    %eax,(%esp)
 80490c2:	e8 19 f9 ff ff       	call   80489e0 <strtol@plt>
 80490c7:	89 c3                	mov    %eax,%ebx
 80490c9:	8d 40 fd             	lea    -0x3(%eax),%eax
 80490cc:	3d 97 00 00 00       	cmp    $0x97,%eax
 80490d1:	76 05                	jbe    80490d8 <secret_phase+0x32>
 80490d3:	e8 c2 05 00 00       	call   804969a <explode_bomb>
 80490d8:	89 5c 24 04          	mov    %ebx,0x4(%esp)
 80490dc:	c7 04 24 c0 d0 04 08 	movl   $0x804d0c0,(%esp)
 80490e3:	e8 6d ff ff ff       	call   8049055 <fun7>
 80490e8:	83 f8 03             	cmp    $0x3,%eax
 80490eb:	74 05                	je     80490f2 <secret_phase+0x4c>
 80490ed:	e8 a8 05 00 00       	call   804969a <explode_bomb>
 80490f2:	c7 04 24 98 a7 04 08 	movl   $0x804a798,(%esp)
 80490f9:	e8 d2 f7 ff ff       	call   80488d0 <puts@plt>
 80490fe:	e8 28 07 00 00       	call   804982b <phase_defused>
 8049103:	83 c4 18             	add    $0x18,%esp
 8049106:	5b                   	pop    %ebx
 8049107:	c3                   	ret    
 8049108:	90                   	nop
 8049109:	90                   	nop
 804910a:	90                   	nop
 804910b:	90                   	nop
 804910c:	90                   	nop
 804910d:	90                   	nop
 804910e:	90                   	nop
 804910f:	90                   	nop

08049110 <sig_handler>:
 8049110:	83 ec 1c             	sub    $0x1c,%esp
 8049113:	c7 44 24 04 fe a9 04 	movl   $0x804a9fe,0x4(%esp)
 804911a:	08 
 804911b:	c7 04 24 01 00 00 00 	movl   $0x1,(%esp)
 8049122:	e8 69 f8 ff ff       	call   8048990 <__printf_chk@plt>
 8049127:	a1 00 d8 04 08       	mov    0x804d800,%eax
 804912c:	89 04 24             	mov    %eax,(%esp)
 804912f:	e8 fc f6 ff ff       	call   8048830 <fflush@plt>
 8049134:	c7 04 24 01 00 00 00 	movl   $0x1,(%esp)
 804913b:	e8 20 f7 ff ff       	call   8048860 <sleep@plt>
 8049140:	c7 04 24 0e aa 04 08 	movl   $0x804aa0e,(%esp)
 8049147:	e8 84 f7 ff ff       	call   80488d0 <puts@plt>
 804914c:	c7 04 24 01 00 00 00 	movl   $0x1,(%esp)
 8049153:	e8 08 f7 ff ff       	call   8048860 <sleep@plt>
 8049158:	c7 04 24 10 00 00 00 	movl   $0x10,(%esp)
 804915f:	e8 ac f7 ff ff       	call   8048910 <exit@plt>

08049164 <invalid_phase>:
 8049164:	83 ec 1c             	sub    $0x1c,%esp
 8049167:	8b 44 24 20          	mov    0x20(%esp),%eax
 804916b:	89 44 24 08          	mov    %eax,0x8(%esp)
 804916f:	c7 44 24 04 19 aa 04 	movl   $0x804aa19,0x4(%esp)
 8049176:	08 
 8049177:	c7 04 24 01 00 00 00 	movl   $0x1,(%esp)
 804917e:	e8 0d f8 ff ff       	call   8048990 <__printf_chk@plt>
 8049183:	c7 04 24 08 00 00 00 	movl   $0x8,(%esp)
 804918a:	e8 81 f7 ff ff       	call   8048910 <exit@plt>

0804918f <string_length>:
 804918f:	8b 54 24 04          	mov    0x4(%esp),%edx
 8049193:	b8 00 00 00 00       	mov    $0x0,%eax
 8049198:	80 3a 00             	cmpb   $0x0,(%edx)
 804919b:	74 09                	je     80491a6 <string_length+0x17>
 804919d:	83 c0 01             	add    $0x1,%eax
 80491a0:	80 3c 02 00          	cmpb   $0x0,(%edx,%eax,1)
 80491a4:	75 f7                	jne    804919d <string_length+0xe>
 80491a6:	f3 c3                	repz ret 

080491a8 <strings_not_equal>:
 80491a8:	83 ec 10             	sub    $0x10,%esp
 80491ab:	89 5c 24 04          	mov    %ebx,0x4(%esp)
 80491af:	89 74 24 08          	mov    %esi,0x8(%esp)
 80491b3:	89 7c 24 0c          	mov    %edi,0xc(%esp)
 80491b7:	8b 5c 24 14          	mov    0x14(%esp),%ebx
 80491bb:	8b 74 24 18          	mov    0x18(%esp),%esi
 80491bf:	89 1c 24             	mov    %ebx,(%esp)
 80491c2:	e8 c8 ff ff ff       	call   804918f <string_length>
 80491c7:	89 c7                	mov    %eax,%edi
 80491c9:	89 34 24             	mov    %esi,(%esp)
 80491cc:	e8 be ff ff ff       	call   804918f <string_length>
 80491d1:	ba 01 00 00 00       	mov    $0x1,%edx
 80491d6:	39 c7                	cmp    %eax,%edi
 80491d8:	75 33                	jne    804920d <strings_not_equal+0x65>
 80491da:	0f b6 03             	movzbl (%ebx),%eax
 80491dd:	b2 00                	mov    $0x0,%dl
 80491df:	84 c0                	test   %al,%al
 80491e1:	74 2a                	je     804920d <strings_not_equal+0x65>
 80491e3:	b2 01                	mov    $0x1,%dl
 80491e5:	3a 06                	cmp    (%esi),%al
 80491e7:	75 24                	jne    804920d <strings_not_equal+0x65>
 80491e9:	b8 00 00 00 00       	mov    $0x0,%eax
 80491ee:	eb 08                	jmp    80491f8 <strings_not_equal+0x50>
 80491f0:	83 c0 01             	add    $0x1,%eax
 80491f3:	3a 14 06             	cmp    (%esi,%eax,1),%dl
 80491f6:	75 10                	jne    8049208 <strings_not_equal+0x60>
 80491f8:	0f b6 54 03 01       	movzbl 0x1(%ebx,%eax,1),%edx
 80491fd:	84 d2                	test   %dl,%dl
 80491ff:	75 ef                	jne    80491f0 <strings_not_equal+0x48>
 8049201:	ba 00 00 00 00       	mov    $0x0,%edx
 8049206:	eb 05                	jmp    804920d <strings_not_equal+0x65>
 8049208:	ba 01 00 00 00       	mov    $0x1,%edx
 804920d:	89 d0                	mov    %edx,%eax
 804920f:	8b 5c 24 04          	mov    0x4(%esp),%ebx
 8049213:	8b 74 24 08          	mov    0x8(%esp),%esi
 8049217:	8b 7c 24 0c          	mov    0xc(%esp),%edi
 804921b:	83 c4 10             	add    $0x10,%esp
 804921e:	c3                   	ret    

0804921f <strings_check>:
 804921f:	57                   	push   %edi
 8049220:	56                   	push   %esi
 8049221:	53                   	push   %ebx
 8049222:	83 ec 20             	sub    $0x20,%esp
 8049225:	8b 74 24 30          	mov    0x30(%esp),%esi
 8049229:	8b 5c 24 34          	mov    0x34(%esp),%ebx
 804922d:	89 1c 24             	mov    %ebx,(%esp)
 8049230:	e8 5a ff ff ff       	call   804918f <string_length>
 8049235:	89 c7                	mov    %eax,%edi
 8049237:	89 34 24             	mov    %esi,(%esp)
 804923a:	e8 50 ff ff ff       	call   804918f <string_length>
 804923f:	ba 01 00 00 00       	mov    $0x1,%edx
 8049244:	39 c7                	cmp    %eax,%edi
 8049246:	7d 65                	jge    80492ad <strings_check+0x8e>
 8049248:	0f b6 03             	movzbl (%ebx),%eax
 804924b:	84 c0                	test   %al,%al
 804924d:	74 18                	je     8049267 <strings_check+0x48>
 804924f:	3a 06                	cmp    (%esi),%al
 8049251:	74 09                	je     804925c <strings_check+0x3d>
 8049253:	eb 58                	jmp    80492ad <strings_check+0x8e>
 8049255:	83 c3 01             	add    $0x1,%ebx
 8049258:	3a 06                	cmp    (%esi),%al
 804925a:	75 4c                	jne    80492a8 <strings_check+0x89>
 804925c:	83 c6 01             	add    $0x1,%esi
 804925f:	0f b6 43 01          	movzbl 0x1(%ebx),%eax
 8049263:	84 c0                	test   %al,%al
 8049265:	75 ee                	jne    8049255 <strings_check+0x36>
 8049267:	ba 01 00 00 00       	mov    $0x1,%edx
 804926c:	80 3e 20             	cmpb   $0x20,(%esi)
 804926f:	75 3c                	jne    80492ad <strings_check+0x8e>
 8049271:	80 7e 01 00          	cmpb   $0x0,0x1(%esi)
 8049275:	74 36                	je     80492ad <strings_check+0x8e>
 8049277:	8d 44 24 1c          	lea    0x1c(%esp),%eax
 804927b:	89 44 24 08          	mov    %eax,0x8(%esp)
 804927f:	c7 44 24 04 c9 a7 04 	movl   $0x804a7c9,0x4(%esp)
 8049286:	08 
 8049287:	83 c6 01             	add    $0x1,%esi
 804928a:	89 34 24             	mov    %esi,(%esp)
 804928d:	e8 be f6 ff ff       	call   8048950 <__isoc99_sscanf@plt>
 8049292:	ba 01 00 00 00       	mov    $0x1,%edx
 8049297:	83 f8 01             	cmp    $0x1,%eax
 804929a:	75 11                	jne    80492ad <strings_check+0x8e>
 804929c:	3b 7c 24 1c          	cmp    0x1c(%esp),%edi
 80492a0:	0f 95 c2             	setne  %dl
 80492a3:	0f b6 d2             	movzbl %dl,%edx
 80492a6:	eb 05                	jmp    80492ad <strings_check+0x8e>
 80492a8:	ba 01 00 00 00       	mov    $0x1,%edx
 80492ad:	89 d0                	mov    %edx,%eax
 80492af:	83 c4 20             	add    $0x20,%esp
 80492b2:	5b                   	pop    %ebx
 80492b3:	5e                   	pop    %esi
 80492b4:	5f                   	pop    %edi
 80492b5:	c3                   	ret    

080492b6 <strings_close>:
 80492b6:	57                   	push   %edi
 80492b7:	56                   	push   %esi
 80492b8:	53                   	push   %ebx
 80492b9:	83 ec 04             	sub    $0x4,%esp
 80492bc:	8b 5c 24 14          	mov    0x14(%esp),%ebx
 80492c0:	8b 74 24 18          	mov    0x18(%esp),%esi
 80492c4:	89 1c 24             	mov    %ebx,(%esp)
 80492c7:	e8 c3 fe ff ff       	call   804918f <string_length>
 80492cc:	89 c7                	mov    %eax,%edi
 80492ce:	89 34 24             	mov    %esi,(%esp)
 80492d1:	e8 b9 fe ff ff       	call   804918f <string_length>
 80492d6:	ba 01 00 00 00       	mov    $0x1,%edx
 80492db:	39 c7                	cmp    %eax,%edi
 80492dd:	75 46                	jne    8049325 <strings_close+0x6f>
 80492df:	0f b6 03             	movzbl (%ebx),%eax
 80492e2:	b2 00                	mov    $0x0,%dl
 80492e4:	84 c0                	test   %al,%al
 80492e6:	74 3d                	je     8049325 <strings_close+0x6f>
 80492e8:	0f be c0             	movsbl %al,%eax
 80492eb:	83 c0 01             	add    $0x1,%eax
 80492ee:	0f be 0e             	movsbl (%esi),%ecx
 80492f1:	b2 01                	mov    $0x1,%dl
 80492f3:	39 c8                	cmp    %ecx,%eax
 80492f5:	75 2e                	jne    8049325 <strings_close+0x6f>
 80492f7:	b8 00 00 00 00       	mov    $0x0,%eax
 80492fc:	eb 12                	jmp    8049310 <strings_close+0x5a>
 80492fe:	0f be 4c 06 01       	movsbl 0x1(%esi,%eax,1),%ecx
 8049303:	83 c0 01             	add    $0x1,%eax
 8049306:	0f be d2             	movsbl %dl,%edx
 8049309:	83 c2 01             	add    $0x1,%edx
 804930c:	39 ca                	cmp    %ecx,%edx
 804930e:	75 10                	jne    8049320 <strings_close+0x6a>
 8049310:	0f b6 54 03 01       	movzbl 0x1(%ebx,%eax,1),%edx
 8049315:	84 d2                	test   %dl,%dl
 8049317:	75 e5                	jne    80492fe <strings_close+0x48>
 8049319:	ba 00 00 00 00       	mov    $0x0,%edx
 804931e:	eb 05                	jmp    8049325 <strings_close+0x6f>
 8049320:	ba 01 00 00 00       	mov    $0x1,%edx
 8049325:	89 d0                	mov    %edx,%eax
 8049327:	83 c4 04             	add    $0x4,%esp
 804932a:	5b                   	pop    %ebx
 804932b:	5e                   	pop    %esi
 804932c:	5f                   	pop    %edi
 804932d:	c3                   	ret    

0804932e <initialize_bomb>:
 804932e:	56                   	push   %esi
 804932f:	53                   	push   %ebx
 8049330:	81 ec 84 20 00 00    	sub    $0x2084,%esp
 8049336:	65 a1 14 00 00 00    	mov    %gs:0x14,%eax
 804933c:	89 84 24 7c 20 00 00 	mov    %eax,0x207c(%esp)
 8049343:	31 c0                	xor    %eax,%eax
 8049345:	c7 44 24 04 10 91 04 	movl   $0x8049110,0x4(%esp)
 804934c:	08 
 804934d:	c7 04 24 02 00 00 00 	movl   $0x2,(%esp)
 8049354:	e8 f7 f4 ff ff       	call   8048850 <signal@plt>
 8049359:	c6 84 24 7b 20 00 00 	movb   $0x0,0x207b(%esp)
 8049360:	00 
 8049361:	c7 44 24 04 40 00 00 	movl   $0x40,0x4(%esp)
 8049368:	00 
 8049369:	8d 84 24 3c 20 00 00 	lea    0x203c(%esp),%eax
 8049370:	89 04 24             	mov    %eax,(%esp)
 8049373:	e8 38 f5 ff ff       	call   80488b0 <gethostname@plt>
 8049378:	85 c0                	test   %eax,%eax
 804937a:	74 18                	je     8049394 <initialize_bomb+0x66>
 804937c:	c7 04 24 04 af 04 08 	movl   $0x804af04,(%esp)
 8049383:	e8 48 f5 ff ff       	call   80488d0 <puts@plt>
 8049388:	c7 04 24 08 00 00 00 	movl   $0x8,(%esp)
 804938f:	e8 7c f5 ff ff       	call   8048910 <exit@plt>
 8049394:	b9 00 00 00 00       	mov    $0x0,%ecx
 8049399:	ba 20 00 00 00       	mov    $0x20,%edx
 804939e:	b8 00 00 00 00       	mov    $0x0,%eax
 80493a3:	89 4c 04 18          	mov    %ecx,0x18(%esp,%eax,1)
 80493a7:	83 c0 04             	add    $0x4,%eax
 80493aa:	39 d0                	cmp    %edx,%eax
 80493ac:	72 f5                	jb     80493a3 <initialize_bomb+0x75>
 80493ae:	c7 44 24 20 01 00 00 	movl   $0x1,0x20(%esp)
 80493b5:	00 
 80493b6:	c7 44 24 18 02 00 00 	movl   $0x2,0x18(%esp)
 80493bd:	00 
 80493be:	8d 44 24 38          	lea    0x38(%esp),%eax
 80493c2:	89 44 24 0c          	mov    %eax,0xc(%esp)
 80493c6:	8d 44 24 18          	lea    0x18(%esp),%eax
 80493ca:	89 44 24 08          	mov    %eax,0x8(%esp)
 80493ce:	c7 44 24 04 00 00 00 	movl   $0x0,0x4(%esp)
 80493d5:	00 
 80493d6:	8d 84 24 3c 20 00 00 	lea    0x203c(%esp),%eax
 80493dd:	89 04 24             	mov    %eax,(%esp)
 80493e0:	e8 cb f5 ff ff       	call   80489b0 <getaddrinfo@plt>
 80493e5:	85 c0                	test   %eax,%eax
 80493e7:	74 35                	je     804941e <initialize_bomb+0xf0>
 80493e9:	89 04 24             	mov    %eax,(%esp)
 80493ec:	e8 8f f5 ff ff       	call   8048980 <gai_strerror@plt>
 80493f1:	89 44 24 0c          	mov    %eax,0xc(%esp)
 80493f5:	c7 44 24 08 30 af 04 	movl   $0x804af30,0x8(%esp)
 80493fc:	08 
 80493fd:	c7 44 24 04 01 00 00 	movl   $0x1,0x4(%esp)
 8049404:	00 
 8049405:	a1 e0 d7 04 08       	mov    0x804d7e0,%eax
 804940a:	89 04 24             	mov    %eax,(%esp)
 804940d:	e8 ae f5 ff ff       	call   80489c0 <__fprintf_chk@plt>
 8049412:	c7 04 24 08 00 00 00 	movl   $0x8,(%esp)
 8049419:	e8 f2 f4 ff ff       	call   8048910 <exit@plt>
 804941e:	8b 44 24 38          	mov    0x38(%esp),%eax
 8049422:	8b 70 18             	mov    0x18(%eax),%esi
 8049425:	85 f6                	test   %esi,%esi
 8049427:	74 18                	je     8049441 <initialize_bomb+0x113>
 8049429:	80 3e 00             	cmpb   $0x0,(%esi)
 804942c:	74 13                	je     8049441 <initialize_bomb+0x113>
 804942e:	a1 e0 d5 04 08       	mov    0x804d5e0,%eax
 8049433:	bb 00 00 00 00       	mov    $0x0,%ebx
 8049438:	85 c0                	test   %eax,%eax
 804943a:	75 36                	jne    8049472 <initialize_bomb+0x144>
 804943c:	e9 89 00 00 00       	jmp    80494ca <initialize_bomb+0x19c>
 8049441:	a1 e0 d7 04 08       	mov    0x804d7e0,%eax
 8049446:	89 44 24 0c          	mov    %eax,0xc(%esp)
 804944a:	c7 44 24 08 21 00 00 	movl   $0x21,0x8(%esp)
 8049451:	00 
 8049452:	c7 44 24 04 01 00 00 	movl   $0x1,0x4(%esp)
 8049459:	00 
 804945a:	c7 04 24 5c af 04 08 	movl   $0x804af5c,(%esp)
 8049461:	e8 2a f4 ff ff       	call   8048890 <fwrite@plt>
 8049466:	c7 04 24 08 00 00 00 	movl   $0x8,(%esp)
 804946d:	e8 9e f4 ff ff       	call   8048910 <exit@plt>
 8049472:	89 74 24 04          	mov    %esi,0x4(%esp)
 8049476:	89 04 24             	mov    %eax,(%esp)
 8049479:	e8 c2 f4 ff ff       	call   8048940 <strcasecmp@plt>
 804947e:	85 c0                	test   %eax,%eax
 8049480:	74 10                	je     8049492 <initialize_bomb+0x164>
 8049482:	83 c3 01             	add    $0x1,%ebx
 8049485:	8b 04 9d e0 d5 04 08 	mov    0x804d5e0(,%ebx,4),%eax
 804948c:	85 c0                	test   %eax,%eax
 804948e:	75 e2                	jne    8049472 <initialize_bomb+0x144>
 8049490:	eb 38                	jmp    80494ca <initialize_bomb+0x19c>
 8049492:	8d 44 24 3c          	lea    0x3c(%esp),%eax
 8049496:	89 04 24             	mov    %eax,(%esp)
 8049499:	e8 13 0e 00 00       	call   804a2b1 <init_driver>
 804949e:	85 c0                	test   %eax,%eax
 80494a0:	79 4c                	jns    80494ee <initialize_bomb+0x1c0>
 80494a2:	8d 44 24 3c          	lea    0x3c(%esp),%eax
 80494a6:	89 44 24 08          	mov    %eax,0x8(%esp)
 80494aa:	c7 44 24 04 2a aa 04 	movl   $0x804aa2a,0x4(%esp)
 80494b1:	08 
 80494b2:	c7 04 24 01 00 00 00 	movl   $0x1,(%esp)
 80494b9:	e8 d2 f4 ff ff       	call   8048990 <__printf_chk@plt>
 80494be:	c7 04 24 08 00 00 00 	movl   $0x8,(%esp)
 80494c5:	e8 46 f4 ff ff       	call   8048910 <exit@plt>
 80494ca:	89 74 24 08          	mov    %esi,0x8(%esp)
 80494ce:	c7 44 24 04 80 af 04 	movl   $0x804af80,0x4(%esp)
 80494d5:	08 
 80494d6:	c7 04 24 01 00 00 00 	movl   $0x1,(%esp)
 80494dd:	e8 ae f4 ff ff       	call   8048990 <__printf_chk@plt>
 80494e2:	c7 04 24 08 00 00 00 	movl   $0x8,(%esp)
 80494e9:	e8 22 f4 ff ff       	call   8048910 <exit@plt>
 80494ee:	8b 84 24 7c 20 00 00 	mov    0x207c(%esp),%eax
 80494f5:	65 33 05 14 00 00 00 	xor    %gs:0x14,%eax
 80494fc:	74 05                	je     8049503 <initialize_bomb+0x1d5>
 80494fe:	e8 7d f3 ff ff       	call   8048880 <__stack_chk_fail@plt>
 8049503:	81 c4 84 20 00 00    	add    $0x2084,%esp
 8049509:	5b                   	pop    %ebx
 804950a:	5e                   	pop    %esi
 804950b:	c3                   	ret    

0804950c <initialize_bomb_solve>:
 804950c:	f3 c3                	repz ret 

0804950e <blank_line>:
 804950e:	56                   	push   %esi
 804950f:	53                   	push   %ebx
 8049510:	83 ec 04             	sub    $0x4,%esp
 8049513:	8b 74 24 10          	mov    0x10(%esp),%esi
 8049517:	eb 14                	jmp    804952d <blank_line+0x1f>
 8049519:	e8 f2 f4 ff ff       	call   8048a10 <__ctype_b_loc@plt>
 804951e:	83 c6 01             	add    $0x1,%esi
 8049521:	0f be db             	movsbl %bl,%ebx
 8049524:	8b 00                	mov    (%eax),%eax
 8049526:	f6 44 58 01 20       	testb  $0x20,0x1(%eax,%ebx,2)
 804952b:	74 0e                	je     804953b <blank_line+0x2d>
 804952d:	0f b6 1e             	movzbl (%esi),%ebx
 8049530:	84 db                	test   %bl,%bl
 8049532:	75 e5                	jne    8049519 <blank_line+0xb>
 8049534:	b8 01 00 00 00       	mov    $0x1,%eax
 8049539:	eb 05                	jmp    8049540 <blank_line+0x32>
 804953b:	b8 00 00 00 00       	mov    $0x0,%eax
 8049540:	83 c4 04             	add    $0x4,%esp
 8049543:	5b                   	pop    %ebx
 8049544:	5e                   	pop    %esi
 8049545:	c3                   	ret    

08049546 <skip>:
 8049546:	53                   	push   %ebx
 8049547:	83 ec 18             	sub    $0x18,%esp
 804954a:	a1 10 d8 04 08       	mov    0x804d810,%eax
 804954f:	89 44 24 08          	mov    %eax,0x8(%esp)
 8049553:	c7 44 24 04 50 00 00 	movl   $0x50,0x4(%esp)
 804955a:	00 
 804955b:	a1 0c d8 04 08       	mov    0x804d80c,%eax
 8049560:	8d 04 80             	lea    (%eax,%eax,4),%eax
 8049563:	c1 e0 04             	shl    $0x4,%eax
 8049566:	05 20 d8 04 08       	add    $0x804d820,%eax
 804956b:	89 04 24             	mov    %eax,(%esp)
 804956e:	e8 cd f2 ff ff       	call   8048840 <fgets@plt>
 8049573:	89 c3                	mov    %eax,%ebx
 8049575:	85 c0                	test   %eax,%eax
 8049577:	74 0c                	je     8049585 <skip+0x3f>
 8049579:	89 04 24             	mov    %eax,(%esp)
 804957c:	e8 8d ff ff ff       	call   804950e <blank_line>
 8049581:	85 c0                	test   %eax,%eax
 8049583:	75 c5                	jne    804954a <skip+0x4>
 8049585:	89 d8                	mov    %ebx,%eax
 8049587:	83 c4 18             	add    $0x18,%esp
 804958a:	5b                   	pop    %ebx
 804958b:	c3                   	ret    

0804958c <send_msg>:
 804958c:	57                   	push   %edi
 804958d:	53                   	push   %ebx
 804958e:	81 ec 34 40 00 00    	sub    $0x4034,%esp
 8049594:	65 a1 14 00 00 00    	mov    %gs:0x14,%eax
 804959a:	89 84 24 2c 40 00 00 	mov    %eax,0x402c(%esp)
 80495a1:	31 c0                	xor    %eax,%eax
 80495a3:	8b 15 0c d8 04 08    	mov    0x804d80c,%edx
 80495a9:	8d 5c 92 fb          	lea    -0x5(%edx,%edx,4),%ebx
 80495ad:	c1 e3 04             	shl    $0x4,%ebx
 80495b0:	81 c3 20 d8 04 08    	add    $0x804d820,%ebx
 80495b6:	89 df                	mov    %ebx,%edi
 80495b8:	b9 ff ff ff ff       	mov    $0xffffffff,%ecx
 80495bd:	f2 ae                	repnz scas %es:(%edi),%al
 80495bf:	f7 d1                	not    %ecx
 80495c1:	83 c1 63             	add    $0x63,%ecx
 80495c4:	81 f9 00 20 00 00    	cmp    $0x2000,%ecx
 80495ca:	76 20                	jbe    80495ec <send_msg+0x60>
 80495cc:	c7 44 24 04 b8 af 04 	movl   $0x804afb8,0x4(%esp)
 80495d3:	08 
 80495d4:	c7 04 24 01 00 00 00 	movl   $0x1,(%esp)
 80495db:	e8 b0 f3 ff ff       	call   8048990 <__printf_chk@plt>
 80495e0:	c7 04 24 08 00 00 00 	movl   $0x8,(%esp)
 80495e7:	e8 24 f3 ff ff       	call   8048910 <exit@plt>
 80495ec:	83 bc 24 40 40 00 00 	cmpl   $0x0,0x4040(%esp)
 80495f3:	00 
 80495f4:	b8 48 aa 04 08       	mov    $0x804aa48,%eax
 80495f9:	b9 50 aa 04 08       	mov    $0x804aa50,%ecx
 80495fe:	0f 44 c1             	cmove  %ecx,%eax
 8049601:	89 5c 24 1c          	mov    %ebx,0x1c(%esp)
 8049605:	89 54 24 18          	mov    %edx,0x18(%esp)
 8049609:	89 44 24 14          	mov    %eax,0x14(%esp)
 804960d:	a1 c0 d5 04 08       	mov    0x804d5c0,%eax
 8049612:	89 44 24 10          	mov    %eax,0x10(%esp)
 8049616:	c7 44 24 0c 59 aa 04 	movl   $0x804aa59,0xc(%esp)
 804961d:	08 
 804961e:	c7 44 24 08 00 20 00 	movl   $0x2000,0x8(%esp)
 8049625:	00 
 8049626:	c7 44 24 04 01 00 00 	movl   $0x1,0x4(%esp)
 804962d:	00 
 804962e:	8d 5c 24 2c          	lea    0x2c(%esp),%ebx
 8049632:	89 1c 24             	mov    %ebx,(%esp)
 8049635:	e8 e6 f3 ff ff       	call   8048a20 <__sprintf_chk@plt>
 804963a:	8d 84 24 2c 20 00 00 	lea    0x202c(%esp),%eax
 8049641:	89 44 24 0c          	mov    %eax,0xc(%esp)
 8049645:	c7 44 24 08 00 00 00 	movl   $0x0,0x8(%esp)
 804964c:	00 
 804964d:	89 5c 24 04          	mov    %ebx,0x4(%esp)
 8049651:	c7 04 24 c0 d1 04 08 	movl   $0x804d1c0,(%esp)
 8049658:	e8 3c 0e 00 00       	call   804a499 <driver_post>
 804965d:	85 c0                	test   %eax,%eax
 804965f:	79 1b                	jns    804967c <send_msg+0xf0>
 8049661:	8d 84 24 2c 20 00 00 	lea    0x202c(%esp),%eax
 8049668:	89 04 24             	mov    %eax,(%esp)
 804966b:	e8 60 f2 ff ff       	call   80488d0 <puts@plt>
 8049670:	c7 04 24 00 00 00 00 	movl   $0x0,(%esp)
 8049677:	e8 94 f2 ff ff       	call   8048910 <exit@plt>
 804967c:	8b 84 24 2c 40 00 00 	mov    0x402c(%esp),%eax
 8049683:	65 33 05 14 00 00 00 	xor    %gs:0x14,%eax
 804968a:	74 05                	je     8049691 <send_msg+0x105>
 804968c:	e8 ef f1 ff ff       	call   8048880 <__stack_chk_fail@plt>
 8049691:	81 c4 34 40 00 00    	add    $0x4034,%esp
 8049697:	5b                   	pop    %ebx
 8049698:	5f                   	pop    %edi
 8049699:	c3                   	ret    

0804969a <explode_bomb>:
 804969a:	83 ec 1c             	sub    $0x1c,%esp
 804969d:	c7 04 24 dc af 04 08 	movl   $0x804afdc,(%esp)
 80496a4:	e8 27 f2 ff ff       	call   80488d0 <puts@plt>
 80496a9:	c7 04 24 00 00 00 00 	movl   $0x0,(%esp)
 80496b0:	e8 d7 fe ff ff       	call   804958c <send_msg>
 80496b5:	c7 04 24 0c b0 04 08 	movl   $0x804b00c,(%esp)
 80496bc:	e8 0f f2 ff ff       	call   80488d0 <puts@plt>
 80496c1:	c7 04 24 08 00 00 00 	movl   $0x8,(%esp)
 80496c8:	e8 43 f2 ff ff       	call   8048910 <exit@plt>

080496cd <read_line>:
 80496cd:	83 ec 2c             	sub    $0x2c,%esp
 80496d0:	89 5c 24 20          	mov    %ebx,0x20(%esp)
 80496d4:	89 74 24 24          	mov    %esi,0x24(%esp)
 80496d8:	89 7c 24 28          	mov    %edi,0x28(%esp)
 80496dc:	e8 65 fe ff ff       	call   8049546 <skip>
 80496e1:	85 c0                	test   %eax,%eax
 80496e3:	75 6c                	jne    8049751 <read_line+0x84>
 80496e5:	a1 e4 d7 04 08       	mov    0x804d7e4,%eax
 80496ea:	39 05 10 d8 04 08    	cmp    %eax,0x804d810
 80496f0:	75 18                	jne    804970a <read_line+0x3d>
 80496f2:	c7 04 24 65 aa 04 08 	movl   $0x804aa65,(%esp)
 80496f9:	e8 d2 f1 ff ff       	call   80488d0 <puts@plt>
 80496fe:	c7 04 24 08 00 00 00 	movl   $0x8,(%esp)
 8049705:	e8 06 f2 ff ff       	call   8048910 <exit@plt>
 804970a:	c7 04 24 83 aa 04 08 	movl   $0x804aa83,(%esp)
 8049711:	e8 aa f1 ff ff       	call   80488c0 <getenv@plt>
 8049716:	85 c0                	test   %eax,%eax
 8049718:	74 0c                	je     8049726 <read_line+0x59>
 804971a:	c7 04 24 00 00 00 00 	movl   $0x0,(%esp)
 8049721:	e8 ea f1 ff ff       	call   8048910 <exit@plt>
 8049726:	a1 e4 d7 04 08       	mov    0x804d7e4,%eax
 804972b:	a3 10 d8 04 08       	mov    %eax,0x804d810
 8049730:	e8 11 fe ff ff       	call   8049546 <skip>
 8049735:	85 c0                	test   %eax,%eax
 8049737:	75 18                	jne    8049751 <read_line+0x84>
 8049739:	c7 04 24 65 aa 04 08 	movl   $0x804aa65,(%esp)
 8049740:	e8 8b f1 ff ff       	call   80488d0 <puts@plt>
 8049745:	c7 04 24 00 00 00 00 	movl   $0x0,(%esp)
 804974c:	e8 bf f1 ff ff       	call   8048910 <exit@plt>
 8049751:	8b 15 0c d8 04 08    	mov    0x804d80c,%edx
 8049757:	8d 1c 92             	lea    (%edx,%edx,4),%ebx
 804975a:	c1 e3 04             	shl    $0x4,%ebx
 804975d:	81 c3 20 d8 04 08    	add    $0x804d820,%ebx
 8049763:	89 df                	mov    %ebx,%edi
 8049765:	b8 00 00 00 00       	mov    $0x0,%eax
 804976a:	b9 ff ff ff ff       	mov    $0xffffffff,%ecx
 804976f:	f2 ae                	repnz scas %es:(%edi),%al
 8049771:	f7 d1                	not    %ecx
 8049773:	83 e9 01             	sub    $0x1,%ecx
 8049776:	83 f9 4e             	cmp    $0x4e,%ecx
 8049779:	7e 37                	jle    80497b2 <read_line+0xe5>
 804977b:	c7 04 24 8e aa 04 08 	movl   $0x804aa8e,(%esp)
 8049782:	e8 49 f1 ff ff       	call   80488d0 <puts@plt>
 8049787:	a1 0c d8 04 08       	mov    0x804d80c,%eax
 804978c:	8d 50 01             	lea    0x1(%eax),%edx
 804978f:	89 15 0c d8 04 08    	mov    %edx,0x804d80c
 8049795:	6b c0 50             	imul   $0x50,%eax,%eax
 8049798:	05 20 d8 04 08       	add    $0x804d820,%eax
 804979d:	ba a9 aa 04 08       	mov    $0x804aaa9,%edx
 80497a2:	b9 04 00 00 00       	mov    $0x4,%ecx
 80497a7:	89 c7                	mov    %eax,%edi
 80497a9:	89 d6                	mov    %edx,%esi
 80497ab:	f3 a5                	rep movsl %ds:(%esi),%es:(%edi)
 80497ad:	e8 e8 fe ff ff       	call   804969a <explode_bomb>
 80497b2:	8d 04 92             	lea    (%edx,%edx,4),%eax
 80497b5:	c1 e0 04             	shl    $0x4,%eax
 80497b8:	c6 84 01 1f d8 04 08 	movb   $0x0,0x804d81f(%ecx,%eax,1)
 80497bf:	00 
 80497c0:	83 c2 01             	add    $0x1,%edx
 80497c3:	89 15 0c d8 04 08    	mov    %edx,0x804d80c
 80497c9:	89 d8                	mov    %ebx,%eax
 80497cb:	8b 5c 24 20          	mov    0x20(%esp),%ebx
 80497cf:	8b 74 24 24          	mov    0x24(%esp),%esi
 80497d3:	8b 7c 24 28          	mov    0x28(%esp),%edi
 80497d7:	83 c4 2c             	add    $0x2c,%esp
 80497da:	c3                   	ret    

080497db <read_six_numbers>:
 80497db:	83 ec 2c             	sub    $0x2c,%esp
 80497de:	8b 44 24 34          	mov    0x34(%esp),%eax
 80497e2:	8d 50 14             	lea    0x14(%eax),%edx
 80497e5:	89 54 24 1c          	mov    %edx,0x1c(%esp)
 80497e9:	8d 50 10             	lea    0x10(%eax),%edx
 80497ec:	89 54 24 18          	mov    %edx,0x18(%esp)
 80497f0:	8d 50 0c             	lea    0xc(%eax),%edx
 80497f3:	89 54 24 14          	mov    %edx,0x14(%esp)
 80497f7:	8d 50 08             	lea    0x8(%eax),%edx
 80497fa:	89 54 24 10          	mov    %edx,0x10(%esp)
 80497fe:	8d 50 04             	lea    0x4(%eax),%edx
 8049801:	89 54 24 0c          	mov    %edx,0xc(%esp)
 8049805:	89 44 24 08          	mov    %eax,0x8(%esp)
 8049809:	c7 44 24 04 b9 aa 04 	movl   $0x804aab9,0x4(%esp)
 8049810:	08 
 8049811:	8b 44 24 30          	mov    0x30(%esp),%eax
 8049815:	89 04 24             	mov    %eax,(%esp)
 8049818:	e8 33 f1 ff ff       	call   8048950 <__isoc99_sscanf@plt>
 804981d:	83 f8 05             	cmp    $0x5,%eax
 8049820:	7f 05                	jg     8049827 <read_six_numbers+0x4c>
 8049822:	e8 73 fe ff ff       	call   804969a <explode_bomb>
 8049827:	83 c4 2c             	add    $0x2c,%esp
 804982a:	c3                   	ret    

0804982b <phase_defused>:
 804982b:	81 ec 8c 00 00 00    	sub    $0x8c,%esp
 8049831:	65 a1 14 00 00 00    	mov    %gs:0x14,%eax
 8049837:	89 44 24 7c          	mov    %eax,0x7c(%esp)
 804983b:	31 c0                	xor    %eax,%eax
 804983d:	c7 04 24 01 00 00 00 	movl   $0x1,(%esp)
 8049844:	e8 43 fd ff ff       	call   804958c <send_msg>
 8049849:	83 3d 0c d8 04 08 06 	cmpl   $0x6,0x804d80c
 8049850:	75 72                	jne    80498c4 <phase_defused+0x99>
 8049852:	8d 44 24 2c          	lea    0x2c(%esp),%eax
 8049856:	89 44 24 10          	mov    %eax,0x10(%esp)
 804985a:	8d 44 24 28          	lea    0x28(%esp),%eax
 804985e:	89 44 24 0c          	mov    %eax,0xc(%esp)
 8049862:	8d 44 24 24          	lea    0x24(%esp),%eax
 8049866:	89 44 24 08          	mov    %eax,0x8(%esp)
 804986a:	c7 44 24 04 cb aa 04 	movl   $0x804aacb,0x4(%esp)
 8049871:	08 
 8049872:	c7 04 24 10 d9 04 08 	movl   $0x804d910,(%esp)
 8049879:	e8 d2 f0 ff ff       	call   8048950 <__isoc99_sscanf@plt>
 804987e:	83 f8 03             	cmp    $0x3,%eax
 8049881:	75 29                	jne    80498ac <phase_defused+0x81>
 8049883:	c7 44 24 04 d4 aa 04 	movl   $0x804aad4,0x4(%esp)
 804988a:	08 
 804988b:	8d 44 24 2c          	lea    0x2c(%esp),%eax
 804988f:	89 04 24             	mov    %eax,(%esp)
 8049892:	e8 1f fa ff ff       	call   80492b6 <strings_close>
 8049897:	85 c0                	test   %eax,%eax
 8049899:	75 11                	jne    80498ac <phase_defused+0x81>
 804989b:	c7 04 24 54 b0 04 08 	movl   $0x804b054,(%esp)
 80498a2:	e8 29 f0 ff ff       	call   80488d0 <puts@plt>
 80498a7:	e8 fa f7 ff ff       	call   80490a6 <secret_phase>
 80498ac:	c7 04 24 78 b0 04 08 	movl   $0x804b078,(%esp)
 80498b3:	e8 18 f0 ff ff       	call   80488d0 <puts@plt>
 80498b8:	c7 04 24 a8 b0 04 08 	movl   $0x804b0a8,(%esp)
 80498bf:	e8 0c f0 ff ff       	call   80488d0 <puts@plt>
 80498c4:	8b 44 24 7c          	mov    0x7c(%esp),%eax
 80498c8:	65 33 05 14 00 00 00 	xor    %gs:0x14,%eax
 80498cf:	74 05                	je     80498d6 <phase_defused+0xab>
 80498d1:	e8 aa ef ff ff       	call   8048880 <__stack_chk_fail@plt>
 80498d6:	81 c4 8c 00 00 00    	add    $0x8c,%esp
 80498dc:	c3                   	ret    
 80498dd:	90                   	nop
 80498de:	90                   	nop
 80498df:	90                   	nop

080498e0 <rio_readlineb>:
 80498e0:	55                   	push   %ebp
 80498e1:	57                   	push   %edi
 80498e2:	56                   	push   %esi
 80498e3:	53                   	push   %ebx
 80498e4:	83 ec 3c             	sub    $0x3c,%esp
 80498e7:	89 c3                	mov    %eax,%ebx
 80498e9:	83 f9 01             	cmp    $0x1,%ecx
 80498ec:	0f 86 bb 00 00 00    	jbe    80499ad <rio_readlineb+0xcd>
 80498f2:	89 4c 24 1c          	mov    %ecx,0x1c(%esp)
 80498f6:	89 54 24 18          	mov    %edx,0x18(%esp)
 80498fa:	bd 01 00 00 00       	mov    $0x1,%ebp
 80498ff:	8d 78 0c             	lea    0xc(%eax),%edi
 8049902:	eb 3c                	jmp    8049940 <rio_readlineb+0x60>
 8049904:	c7 44 24 08 00 20 00 	movl   $0x2000,0x8(%esp)
 804990b:	00 
 804990c:	89 7c 24 04          	mov    %edi,0x4(%esp)
 8049910:	8b 03                	mov    (%ebx),%eax
 8049912:	89 04 24             	mov    %eax,(%esp)
 8049915:	e8 06 ef ff ff       	call   8048820 <read@plt>
 804991a:	89 43 04             	mov    %eax,0x4(%ebx)
 804991d:	85 c0                	test   %eax,%eax
 804991f:	79 14                	jns    8049935 <rio_readlineb+0x55>
 8049921:	e8 4a f0 ff ff       	call   8048970 <__errno_location@plt>
 8049926:	83 38 04             	cmpl   $0x4,(%eax)
 8049929:	74 15                	je     8049940 <rio_readlineb+0x60>
 804992b:	90                   	nop
 804992c:	8d 74 26 00          	lea    0x0(%esi,%eiz,1),%esi
 8049930:	e9 a0 00 00 00       	jmp    80499d5 <rio_readlineb+0xf5>
 8049935:	85 c0                	test   %eax,%eax
 8049937:	0f 84 9f 00 00 00    	je     80499dc <rio_readlineb+0xfc>
 804993d:	89 7b 08             	mov    %edi,0x8(%ebx)
 8049940:	8b 73 04             	mov    0x4(%ebx),%esi
 8049943:	85 f6                	test   %esi,%esi
 8049945:	7e bd                	jle    8049904 <rio_readlineb+0x24>
 8049947:	85 f6                	test   %esi,%esi
 8049949:	0f 85 96 00 00 00    	jne    80499e5 <rio_readlineb+0x105>
 804994f:	c7 44 24 0c 01 00 00 	movl   $0x1,0xc(%esp)
 8049956:	00 
 8049957:	89 74 24 08          	mov    %esi,0x8(%esp)
 804995b:	8b 43 08             	mov    0x8(%ebx),%eax
 804995e:	89 44 24 04          	mov    %eax,0x4(%esp)
 8049962:	8d 44 24 2f          	lea    0x2f(%esp),%eax
 8049966:	89 04 24             	mov    %eax,(%esp)
 8049969:	e8 82 ef ff ff       	call   80488f0 <__memcpy_chk@plt>
 804996e:	01 73 08             	add    %esi,0x8(%ebx)
 8049971:	29 73 04             	sub    %esi,0x4(%ebx)
 8049974:	83 fe 01             	cmp    $0x1,%esi
 8049977:	75 18                	jne    8049991 <rio_readlineb+0xb1>
 8049979:	0f b6 44 24 2f       	movzbl 0x2f(%esp),%eax
 804997e:	8b 54 24 18          	mov    0x18(%esp),%edx
 8049982:	88 02                	mov    %al,(%edx)
 8049984:	83 c2 01             	add    $0x1,%edx
 8049987:	89 54 24 18          	mov    %edx,0x18(%esp)
 804998b:	3c 0a                	cmp    $0xa,%al
 804998d:	75 13                	jne    80499a2 <rio_readlineb+0xc2>
 804998f:	eb 25                	jmp    80499b6 <rio_readlineb+0xd6>
 8049991:	89 e8                	mov    %ebp,%eax
 8049993:	85 f6                	test   %esi,%esi
 8049995:	75 28                	jne    80499bf <rio_readlineb+0xdf>
 8049997:	83 f8 01             	cmp    $0x1,%eax
 804999a:	75 1a                	jne    80499b6 <rio_readlineb+0xd6>
 804999c:	8d 74 26 00          	lea    0x0(%esi,%eiz,1),%esi
 80499a0:	eb 24                	jmp    80499c6 <rio_readlineb+0xe6>
 80499a2:	83 c5 01             	add    $0x1,%ebp
 80499a5:	3b 6c 24 1c          	cmp    0x1c(%esp),%ebp
 80499a9:	75 95                	jne    8049940 <rio_readlineb+0x60>
 80499ab:	eb 09                	jmp    80499b6 <rio_readlineb+0xd6>
 80499ad:	89 54 24 18          	mov    %edx,0x18(%esp)
 80499b1:	bd 01 00 00 00       	mov    $0x1,%ebp
 80499b6:	8b 44 24 18          	mov    0x18(%esp),%eax
 80499ba:	c6 00 00             	movb   $0x0,(%eax)
 80499bd:	eb 0c                	jmp    80499cb <rio_readlineb+0xeb>
 80499bf:	bd ff ff ff ff       	mov    $0xffffffff,%ebp
 80499c4:	eb 05                	jmp    80499cb <rio_readlineb+0xeb>
 80499c6:	bd 00 00 00 00       	mov    $0x0,%ebp
 80499cb:	89 e8                	mov    %ebp,%eax
 80499cd:	83 c4 3c             	add    $0x3c,%esp
 80499d0:	5b                   	pop    %ebx
 80499d1:	5e                   	pop    %esi
 80499d2:	5f                   	pop    %edi
 80499d3:	5d                   	pop    %ebp
 80499d4:	c3                   	ret    
 80499d5:	be ff ff ff ff       	mov    $0xffffffff,%esi
 80499da:	eb 05                	jmp    80499e1 <rio_readlineb+0x101>
 80499dc:	be 00 00 00 00       	mov    $0x0,%esi
 80499e1:	89 e8                	mov    %ebp,%eax
 80499e3:	eb ae                	jmp    8049993 <rio_readlineb+0xb3>
 80499e5:	8b 43 08             	mov    0x8(%ebx),%eax
 80499e8:	0f b6 00             	movzbl (%eax),%eax
 80499eb:	88 44 24 2f          	mov    %al,0x2f(%esp)
 80499ef:	83 43 08 01          	addl   $0x1,0x8(%ebx)
 80499f3:	83 6b 04 01          	subl   $0x1,0x4(%ebx)
 80499f7:	eb 80                	jmp    8049979 <rio_readlineb+0x99>

080499f9 <sigalrm_handler>:
 80499f9:	83 ec 1c             	sub    $0x1c,%esp
 80499fc:	c7 44 24 0c 00 00 00 	movl   $0x0,0xc(%esp)
 8049a03:	00 
 8049a04:	c7 44 24 08 dc b0 04 	movl   $0x804b0dc,0x8(%esp)
 8049a0b:	08 
 8049a0c:	c7 44 24 04 01 00 00 	movl   $0x1,0x4(%esp)
 8049a13:	00 
 8049a14:	a1 e0 d7 04 08       	mov    0x804d7e0,%eax
 8049a19:	89 04 24             	mov    %eax,(%esp)
 8049a1c:	e8 9f ef ff ff       	call   80489c0 <__fprintf_chk@plt>
 8049a21:	c7 04 24 01 00 00 00 	movl   $0x1,(%esp)
 8049a28:	e8 e3 ee ff ff       	call   8048910 <exit@plt>

08049a2d <submitr>:
 8049a2d:	55                   	push   %ebp
 8049a2e:	57                   	push   %edi
 8049a2f:	56                   	push   %esi
 8049a30:	53                   	push   %ebx
 8049a31:	81 ec 7c a0 00 00    	sub    $0xa07c,%esp
 8049a37:	8b 9c 24 90 a0 00 00 	mov    0xa090(%esp),%ebx
 8049a3e:	8b 84 24 98 a0 00 00 	mov    0xa098(%esp),%eax
 8049a45:	89 44 24 30          	mov    %eax,0x30(%esp)
 8049a49:	8b 94 24 9c a0 00 00 	mov    0xa09c(%esp),%edx
 8049a50:	89 54 24 34          	mov    %edx,0x34(%esp)
 8049a54:	8b 8c 24 a0 a0 00 00 	mov    0xa0a0(%esp),%ecx
 8049a5b:	89 4c 24 38          	mov    %ecx,0x38(%esp)
 8049a5f:	8b ac 24 a4 a0 00 00 	mov    0xa0a4(%esp),%ebp
 8049a66:	8b 84 24 a8 a0 00 00 	mov    0xa0a8(%esp),%eax
 8049a6d:	89 44 24 28          	mov    %eax,0x28(%esp)
 8049a71:	65 8b 15 14 00 00 00 	mov    %gs:0x14,%edx
 8049a78:	89 94 24 6c a0 00 00 	mov    %edx,0xa06c(%esp)
 8049a7f:	31 d2                	xor    %edx,%edx
 8049a81:	c7 44 24 44 00 00 00 	movl   $0x0,0x44(%esp)
 8049a88:	00 
 8049a89:	c7 44 24 08 00 00 00 	movl   $0x0,0x8(%esp)
 8049a90:	00 
 8049a91:	c7 44 24 04 01 00 00 	movl   $0x1,0x4(%esp)
 8049a98:	00 
 8049a99:	c7 04 24 02 00 00 00 	movl   $0x2,(%esp)
 8049aa0:	e8 fb ee ff ff       	call   80489a0 <socket@plt>
 8049aa5:	89 44 24 2c          	mov    %eax,0x2c(%esp)
 8049aa9:	85 c0                	test   %eax,%eax
 8049aab:	79 52                	jns    8049aff <submitr+0xd2>
 8049aad:	8b 4c 24 28          	mov    0x28(%esp),%ecx
 8049ab1:	c7 01 45 72 72 6f    	movl   $0x6f727245,(%ecx)
 8049ab7:	c7 41 04 72 3a 20 43 	movl   $0x43203a72,0x4(%ecx)
 8049abe:	c7 41 08 6c 69 65 6e 	movl   $0x6e65696c,0x8(%ecx)
 8049ac5:	c7 41 0c 74 20 75 6e 	movl   $0x6e752074,0xc(%ecx)
 8049acc:	c7 41 10 61 62 6c 65 	movl   $0x656c6261,0x10(%ecx)
 8049ad3:	c7 41 14 20 74 6f 20 	movl   $0x206f7420,0x14(%ecx)
 8049ada:	c7 41 18 63 72 65 61 	movl   $0x61657263,0x18(%ecx)
 8049ae1:	c7 41 1c 74 65 20 73 	movl   $0x73206574,0x1c(%ecx)
 8049ae8:	c7 41 20 6f 63 6b 65 	movl   $0x656b636f,0x20(%ecx)
 8049aef:	66 c7 41 24 74 00    	movw   $0x74,0x24(%ecx)
 8049af5:	b8 ff ff ff ff       	mov    $0xffffffff,%eax
 8049afa:	e9 e8 06 00 00       	jmp    804a1e7 <submitr+0x7ba>
 8049aff:	89 1c 24             	mov    %ebx,(%esp)
 8049b02:	e8 c9 ee ff ff       	call   80489d0 <gethostbyname@plt>
 8049b07:	85 c0                	test   %eax,%eax
 8049b09:	75 70                	jne    8049b7b <submitr+0x14e>
 8049b0b:	8b 44 24 28          	mov    0x28(%esp),%eax
 8049b0f:	c7 00 45 72 72 6f    	movl   $0x6f727245,(%eax)
 8049b15:	c7 40 04 72 3a 20 44 	movl   $0x44203a72,0x4(%eax)
 8049b1c:	c7 40 08 4e 53 20 69 	movl   $0x6920534e,0x8(%eax)
 8049b23:	c7 40 0c 73 20 75 6e 	movl   $0x6e752073,0xc(%eax)
 8049b2a:	c7 40 10 61 62 6c 65 	movl   $0x656c6261,0x10(%eax)
 8049b31:	c7 40 14 20 74 6f 20 	movl   $0x206f7420,0x14(%eax)
 8049b38:	c7 40 18 72 65 73 6f 	movl   $0x6f736572,0x18(%eax)
 8049b3f:	c7 40 1c 6c 76 65 20 	movl   $0x2065766c,0x1c(%eax)
 8049b46:	c7 40 20 73 65 72 76 	movl   $0x76726573,0x20(%eax)
 8049b4d:	c7 40 24 65 72 20 61 	movl   $0x61207265,0x24(%eax)
 8049b54:	c7 40 28 64 64 72 65 	movl   $0x65726464,0x28(%eax)
 8049b5b:	66 c7 40 2c 73 73    	movw   $0x7373,0x2c(%eax)
 8049b61:	c6 40 2e 00          	movb   $0x0,0x2e(%eax)
 8049b65:	8b 44 24 2c          	mov    0x2c(%esp),%eax
 8049b69:	89 04 24             	mov    %eax,(%esp)
 8049b6c:	e8 8f ee ff ff       	call   8048a00 <close@plt>
 8049b71:	b8 ff ff ff ff       	mov    $0xffffffff,%eax
 8049b76:	e9 6c 06 00 00       	jmp    804a1e7 <submitr+0x7ba>
 8049b7b:	8d 9c 24 54 a0 00 00 	lea    0xa054(%esp),%ebx
 8049b82:	c7 84 24 54 a0 00 00 	movl   $0x0,0xa054(%esp)
 8049b89:	00 00 00 00 
 8049b8d:	c7 84 24 58 a0 00 00 	movl   $0x0,0xa058(%esp)
 8049b94:	00 00 00 00 
 8049b98:	c7 84 24 5c a0 00 00 	movl   $0x0,0xa05c(%esp)
 8049b9f:	00 00 00 00 
 8049ba3:	c7 84 24 60 a0 00 00 	movl   $0x0,0xa060(%esp)
 8049baa:	00 00 00 00 
 8049bae:	66 c7 84 24 54 a0 00 	movw   $0x2,0xa054(%esp)
 8049bb5:	00 02 00 
 8049bb8:	c7 44 24 0c 0c 00 00 	movl   $0xc,0xc(%esp)
 8049bbf:	00 
 8049bc0:	8b 50 0c             	mov    0xc(%eax),%edx
 8049bc3:	89 54 24 08          	mov    %edx,0x8(%esp)
 8049bc7:	8b 40 10             	mov    0x10(%eax),%eax
 8049bca:	8b 00                	mov    (%eax),%eax
 8049bcc:	89 44 24 04          	mov    %eax,0x4(%esp)
 8049bd0:	8d 84 24 58 a0 00 00 	lea    0xa058(%esp),%eax
 8049bd7:	89 04 24             	mov    %eax,(%esp)
 8049bda:	e8 01 ed ff ff       	call   80488e0 <__memmove_chk@plt>
 8049bdf:	0f b7 84 24 94 a0 00 	movzwl 0xa094(%esp),%eax
 8049be6:	00 
 8049be7:	66 c1 c8 08          	ror    $0x8,%ax
 8049beb:	66 89 84 24 56 a0 00 	mov    %ax,0xa056(%esp)
 8049bf2:	00 
 8049bf3:	c7 44 24 08 10 00 00 	movl   $0x10,0x8(%esp)
 8049bfa:	00 
 8049bfb:	89 5c 24 04          	mov    %ebx,0x4(%esp)
 8049bff:	8b 44 24 2c          	mov    0x2c(%esp),%eax
 8049c03:	89 04 24             	mov    %eax,(%esp)
 8049c06:	e8 e5 ed ff ff       	call   80489f0 <connect@plt>
 8049c0b:	85 c0                	test   %eax,%eax
 8049c0d:	79 62                	jns    8049c71 <submitr+0x244>
 8049c0f:	8b 54 24 28          	mov    0x28(%esp),%edx
 8049c13:	c7 02 45 72 72 6f    	movl   $0x6f727245,(%edx)
 8049c19:	c7 42 04 72 3a 20 55 	movl   $0x55203a72,0x4(%edx)
 8049c20:	c7 42 08 6e 61 62 6c 	movl   $0x6c62616e,0x8(%edx)
 8049c27:	c7 42 0c 65 20 74 6f 	movl   $0x6f742065,0xc(%edx)
 8049c2e:	c7 42 10 20 63 6f 6e 	movl   $0x6e6f6320,0x10(%edx)
 8049c35:	c7 42 14 6e 65 63 74 	movl   $0x7463656e,0x14(%edx)
 8049c3c:	c7 42 18 20 74 6f 20 	movl   $0x206f7420,0x18(%edx)
 8049c43:	c7 42 1c 74 68 65 20 	movl   $0x20656874,0x1c(%edx)
 8049c4a:	c7 42 20 73 65 72 76 	movl   $0x76726573,0x20(%edx)
 8049c51:	66 c7 42 24 65 72    	movw   $0x7265,0x24(%edx)
 8049c57:	c6 42 26 00          	movb   $0x0,0x26(%edx)
 8049c5b:	8b 44 24 2c          	mov    0x2c(%esp),%eax
 8049c5f:	89 04 24             	mov    %eax,(%esp)
 8049c62:	e8 99 ed ff ff       	call   8048a00 <close@plt>
 8049c67:	b8 ff ff ff ff       	mov    $0xffffffff,%eax
 8049c6c:	e9 76 05 00 00       	jmp    804a1e7 <submitr+0x7ba>
 8049c71:	ba ff ff ff ff       	mov    $0xffffffff,%edx
 8049c76:	89 ef                	mov    %ebp,%edi
 8049c78:	b8 00 00 00 00       	mov    $0x0,%eax
 8049c7d:	89 d1                	mov    %edx,%ecx
 8049c7f:	f2 ae                	repnz scas %es:(%edi),%al
 8049c81:	89 cb                	mov    %ecx,%ebx
 8049c83:	f7 d3                	not    %ebx
 8049c85:	8b 7c 24 30          	mov    0x30(%esp),%edi
 8049c89:	89 d1                	mov    %edx,%ecx
 8049c8b:	f2 ae                	repnz scas %es:(%edi),%al
 8049c8d:	89 4c 24 3c          	mov    %ecx,0x3c(%esp)
 8049c91:	8b 7c 24 34          	mov    0x34(%esp),%edi
 8049c95:	89 d1                	mov    %edx,%ecx
 8049c97:	f2 ae                	repnz scas %es:(%edi),%al
 8049c99:	89 ce                	mov    %ecx,%esi
 8049c9b:	f7 d6                	not    %esi
 8049c9d:	8b 7c 24 38          	mov    0x38(%esp),%edi
 8049ca1:	89 d1                	mov    %edx,%ecx
 8049ca3:	f2 ae                	repnz scas %es:(%edi),%al
 8049ca5:	2b 74 24 3c          	sub    0x3c(%esp),%esi
 8049ca9:	29 ce                	sub    %ecx,%esi
 8049cab:	8d 44 5b fd          	lea    -0x3(%ebx,%ebx,2),%eax
 8049caf:	8d 44 06 7b          	lea    0x7b(%esi,%eax,1),%eax
 8049cb3:	3d 00 20 00 00       	cmp    $0x2000,%eax
 8049cb8:	76 7b                	jbe    8049d35 <submitr+0x308>
 8049cba:	8b 44 24 28          	mov    0x28(%esp),%eax
 8049cbe:	c7 00 45 72 72 6f    	movl   $0x6f727245,(%eax)
 8049cc4:	c7 40 04 72 3a 20 52 	movl   $0x52203a72,0x4(%eax)
 8049ccb:	c7 40 08 65 73 75 6c 	movl   $0x6c757365,0x8(%eax)
 8049cd2:	c7 40 0c 74 20 73 74 	movl   $0x74732074,0xc(%eax)
 8049cd9:	c7 40 10 72 69 6e 67 	movl   $0x676e6972,0x10(%eax)
 8049ce0:	c7 40 14 20 74 6f 6f 	movl   $0x6f6f7420,0x14(%eax)
 8049ce7:	c7 40 18 20 6c 61 72 	movl   $0x72616c20,0x18(%eax)
 8049cee:	c7 40 1c 67 65 2e 20 	movl   $0x202e6567,0x1c(%eax)
 8049cf5:	c7 40 20 49 6e 63 72 	movl   $0x72636e49,0x20(%eax)
 8049cfc:	c7 40 24 65 61 73 65 	movl   $0x65736165,0x24(%eax)
 8049d03:	c7 40 28 20 53 55 42 	movl   $0x42555320,0x28(%eax)
 8049d0a:	c7 40 2c 4d 49 54 52 	movl   $0x5254494d,0x2c(%eax)
 8049d11:	c7 40 30 5f 4d 41 58 	movl   $0x58414d5f,0x30(%eax)
 8049d18:	c7 40 34 42 55 46 00 	movl   $0x465542,0x34(%eax)
 8049d1f:	8b 44 24 2c          	mov    0x2c(%esp),%eax
 8049d23:	89 04 24             	mov    %eax,(%esp)
 8049d26:	e8 d5 ec ff ff       	call   8048a00 <close@plt>
 8049d2b:	b8 ff ff ff ff       	mov    $0xffffffff,%eax
 8049d30:	e9 b2 04 00 00       	jmp    804a1e7 <submitr+0x7ba>
 8049d35:	8d 94 24 54 40 00 00 	lea    0x4054(%esp),%edx
 8049d3c:	b9 00 08 00 00       	mov    $0x800,%ecx
 8049d41:	b8 00 00 00 00       	mov    $0x0,%eax
 8049d46:	89 d7                	mov    %edx,%edi
 8049d48:	f3 ab                	rep stos %eax,%es:(%edi)
 8049d4a:	89 ef                	mov    %ebp,%edi
 8049d4c:	b9 ff ff ff ff       	mov    $0xffffffff,%ecx
 8049d51:	f2 ae                	repnz scas %es:(%edi),%al
 8049d53:	f7 d1                	not    %ecx
 8049d55:	89 ce                	mov    %ecx,%esi
 8049d57:	83 ee 01             	sub    $0x1,%esi
 8049d5a:	0f 84 99 04 00 00    	je     804a1f9 <submitr+0x7cc>
 8049d60:	89 d3                	mov    %edx,%ebx
 8049d62:	0f b6 45 00          	movzbl 0x0(%ebp),%eax
 8049d66:	3c 2a                	cmp    $0x2a,%al
 8049d68:	74 24                	je     8049d8e <submitr+0x361>
 8049d6a:	3c 2d                	cmp    $0x2d,%al
 8049d6c:	74 20                	je     8049d8e <submitr+0x361>
 8049d6e:	3c 2e                	cmp    $0x2e,%al
 8049d70:	74 1c                	je     8049d8e <submitr+0x361>
 8049d72:	3c 5f                	cmp    $0x5f,%al
 8049d74:	74 18                	je     8049d8e <submitr+0x361>
 8049d76:	8d 50 d0             	lea    -0x30(%eax),%edx
 8049d79:	80 fa 09             	cmp    $0x9,%dl
 8049d7c:	76 10                	jbe    8049d8e <submitr+0x361>
 8049d7e:	8d 50 bf             	lea    -0x41(%eax),%edx
 8049d81:	80 fa 19             	cmp    $0x19,%dl
 8049d84:	76 08                	jbe    8049d8e <submitr+0x361>
 8049d86:	8d 50 9f             	lea    -0x61(%eax),%edx
 8049d89:	80 fa 19             	cmp    $0x19,%dl
 8049d8c:	77 07                	ja     8049d95 <submitr+0x368>
 8049d8e:	88 03                	mov    %al,(%ebx)
 8049d90:	83 c3 01             	add    $0x1,%ebx
 8049d93:	eb 69                	jmp    8049dfe <submitr+0x3d1>
 8049d95:	3c 20                	cmp    $0x20,%al
 8049d97:	75 08                	jne    8049da1 <submitr+0x374>
 8049d99:	c6 03 2b             	movb   $0x2b,(%ebx)
 8049d9c:	83 c3 01             	add    $0x1,%ebx
 8049d9f:	eb 5d                	jmp    8049dfe <submitr+0x3d1>
 8049da1:	8d 50 e0             	lea    -0x20(%eax),%edx
 8049da4:	80 fa 5f             	cmp    $0x5f,%dl
 8049da7:	76 04                	jbe    8049dad <submitr+0x380>
 8049da9:	3c 09                	cmp    $0x9,%al
 8049dab:	75 62                	jne    8049e0f <submitr+0x3e2>
 8049dad:	0f b6 c0             	movzbl %al,%eax
 8049db0:	89 44 24 10          	mov    %eax,0x10(%esp)
 8049db4:	c7 44 24 0c 10 b2 04 	movl   $0x804b210,0xc(%esp)
 8049dbb:	08 
 8049dbc:	c7 44 24 08 08 00 00 	movl   $0x8,0x8(%esp)
 8049dc3:	00 
 8049dc4:	c7 44 24 04 01 00 00 	movl   $0x1,0x4(%esp)
 8049dcb:	00 
 8049dcc:	8d 94 24 64 a0 00 00 	lea    0xa064(%esp),%edx
 8049dd3:	89 14 24             	mov    %edx,(%esp)
 8049dd6:	e8 45 ec ff ff       	call   8048a20 <__sprintf_chk@plt>
 8049ddb:	0f b6 84 24 64 a0 00 	movzbl 0xa064(%esp),%eax
 8049de2:	00 
 8049de3:	88 03                	mov    %al,(%ebx)
 8049de5:	0f b6 84 24 65 a0 00 	movzbl 0xa065(%esp),%eax
 8049dec:	00 
 8049ded:	88 43 01             	mov    %al,0x1(%ebx)
 8049df0:	0f b6 84 24 66 a0 00 	movzbl 0xa066(%esp),%eax
 8049df7:	00 
 8049df8:	88 43 02             	mov    %al,0x2(%ebx)
 8049dfb:	83 c3 03             	add    $0x3,%ebx
 8049dfe:	83 c5 01             	add    $0x1,%ebp
 8049e01:	83 ee 01             	sub    $0x1,%esi
 8049e04:	0f 85 58 ff ff ff    	jne    8049d62 <submitr+0x335>
 8049e0a:	e9 ea 03 00 00       	jmp    804a1f9 <submitr+0x7cc>
 8049e0f:	8b 7c 24 28          	mov    0x28(%esp),%edi
 8049e13:	be 00 b1 04 08       	mov    $0x804b100,%esi
 8049e18:	b8 43 00 00 00       	mov    $0x43,%eax
 8049e1d:	f7 c7 01 00 00 00    	test   $0x1,%edi
 8049e23:	74 1a                	je     8049e3f <submitr+0x412>
 8049e25:	0f b6 05 00 b1 04 08 	movzbl 0x804b100,%eax
 8049e2c:	88 07                	mov    %al,(%edi)
 8049e2e:	8b 7c 24 28          	mov    0x28(%esp),%edi
 8049e32:	83 c7 01             	add    $0x1,%edi
 8049e35:	be 01 b1 04 08       	mov    $0x804b101,%esi
 8049e3a:	b8 42 00 00 00       	mov    $0x42,%eax
 8049e3f:	f7 c7 02 00 00 00    	test   $0x2,%edi
 8049e45:	74 0f                	je     8049e56 <submitr+0x429>
 8049e47:	0f b7 16             	movzwl (%esi),%edx
 8049e4a:	66 89 17             	mov    %dx,(%edi)
 8049e4d:	83 c7 02             	add    $0x2,%edi
 8049e50:	83 c6 02             	add    $0x2,%esi
 8049e53:	83 e8 02             	sub    $0x2,%eax
 8049e56:	89 c1                	mov    %eax,%ecx
 8049e58:	c1 e9 02             	shr    $0x2,%ecx
 8049e5b:	f3 a5                	rep movsl %ds:(%esi),%es:(%edi)
 8049e5d:	ba 00 00 00 00       	mov    $0x0,%edx
 8049e62:	a8 02                	test   $0x2,%al
 8049e64:	74 0b                	je     8049e71 <submitr+0x444>
 8049e66:	0f b7 16             	movzwl (%esi),%edx
 8049e69:	66 89 17             	mov    %dx,(%edi)
 8049e6c:	ba 02 00 00 00       	mov    $0x2,%edx
 8049e71:	a8 01                	test   $0x1,%al
 8049e73:	74 07                	je     8049e7c <submitr+0x44f>
 8049e75:	0f b6 04 16          	movzbl (%esi,%edx,1),%eax
 8049e79:	88 04 17             	mov    %al,(%edi,%edx,1)
 8049e7c:	8b 44 24 2c          	mov    0x2c(%esp),%eax
 8049e80:	89 04 24             	mov    %eax,(%esp)
 8049e83:	e8 78 eb ff ff       	call   8048a00 <close@plt>
 8049e88:	b8 ff ff ff ff       	mov    $0xffffffff,%eax
 8049e8d:	e9 55 03 00 00       	jmp    804a1e7 <submitr+0x7ba>
 8049e92:	89 fd                	mov    %edi,%ebp
 8049e94:	8b 7c 24 2c          	mov    0x2c(%esp),%edi
 8049e98:	89 5c 24 08          	mov    %ebx,0x8(%esp)
 8049e9c:	89 74 24 04          	mov    %esi,0x4(%esp)
 8049ea0:	89 3c 24             	mov    %edi,(%esp)
 8049ea3:	e8 88 ea ff ff       	call   8048930 <write@plt>
 8049ea8:	85 c0                	test   %eax,%eax
 8049eaa:	7f 0f                	jg     8049ebb <submitr+0x48e>
 8049eac:	e8 bf ea ff ff       	call   8048970 <__errno_location@plt>
 8049eb1:	83 38 04             	cmpl   $0x4,(%eax)
 8049eb4:	75 0f                	jne    8049ec5 <submitr+0x498>
 8049eb6:	b8 00 00 00 00       	mov    $0x0,%eax
 8049ebb:	01 c6                	add    %eax,%esi
 8049ebd:	29 c3                	sub    %eax,%ebx
 8049ebf:	75 d7                	jne    8049e98 <submitr+0x46b>
 8049ec1:	85 ed                	test   %ebp,%ebp
 8049ec3:	79 66                	jns    8049f2b <submitr+0x4fe>
 8049ec5:	8b 54 24 28          	mov    0x28(%esp),%edx
 8049ec9:	c7 02 45 72 72 6f    	movl   $0x6f727245,(%edx)
 8049ecf:	c7 42 04 72 3a 20 43 	movl   $0x43203a72,0x4(%edx)
 8049ed6:	c7 42 08 6c 69 65 6e 	movl   $0x6e65696c,0x8(%edx)
 8049edd:	c7 42 0c 74 20 75 6e 	movl   $0x6e752074,0xc(%edx)
 8049ee4:	c7 42 10 61 62 6c 65 	movl   $0x656c6261,0x10(%edx)
 8049eeb:	c7 42 14 20 74 6f 20 	movl   $0x206f7420,0x14(%edx)
 8049ef2:	c7 42 18 77 72 69 74 	movl   $0x74697277,0x18(%edx)
 8049ef9:	c7 42 1c 65 20 74 6f 	movl   $0x6f742065,0x1c(%edx)
 8049f00:	c7 42 20 20 74 68 65 	movl   $0x65687420,0x20(%edx)
 8049f07:	c7 42 24 20 73 65 72 	movl   $0x72657320,0x24(%edx)
 8049f0e:	c7 42 28 76 65 72 00 	movl   $0x726576,0x28(%edx)
 8049f15:	8b 44 24 2c          	mov    0x2c(%esp),%eax
 8049f19:	89 04 24             	mov    %eax,(%esp)
 8049f1c:	e8 df ea ff ff       	call   8048a00 <close@plt>
 8049f21:	b8 ff ff ff ff       	mov    $0xffffffff,%eax
 8049f26:	e9 bc 02 00 00       	jmp    804a1e7 <submitr+0x7ba>
 8049f2b:	8b 44 24 2c          	mov    0x2c(%esp),%eax
 8049f2f:	89 44 24 48          	mov    %eax,0x48(%esp)
 8049f33:	c7 44 24 4c 00 00 00 	movl   $0x0,0x4c(%esp)
 8049f3a:	00 
 8049f3b:	8d 44 24 54          	lea    0x54(%esp),%eax
 8049f3f:	89 44 24 50          	mov    %eax,0x50(%esp)
 8049f43:	b9 00 20 00 00       	mov    $0x2000,%ecx
 8049f48:	8d 94 24 54 20 00 00 	lea    0x2054(%esp),%edx
 8049f4f:	8d 44 24 48          	lea    0x48(%esp),%eax
 8049f53:	e8 88 f9 ff ff       	call   80498e0 <rio_readlineb>
 8049f58:	85 c0                	test   %eax,%eax
 8049f5a:	7f 7a                	jg     8049fd6 <submitr+0x5a9>
 8049f5c:	8b 54 24 28          	mov    0x28(%esp),%edx
 8049f60:	c7 02 45 72 72 6f    	movl   $0x6f727245,(%edx)
 8049f66:	c7 42 04 72 3a 20 43 	movl   $0x43203a72,0x4(%edx)
 8049f6d:	c7 42 08 6c 69 65 6e 	movl   $0x6e65696c,0x8(%edx)
 8049f74:	c7 42 0c 74 20 75 6e 	movl   $0x6e752074,0xc(%edx)
 8049f7b:	c7 42 10 61 62 6c 65 	movl   $0x656c6261,0x10(%edx)
 8049f82:	c7 42 14 20 74 6f 20 	movl   $0x206f7420,0x14(%edx)
 8049f89:	c7 42 18 72 65 61 64 	movl   $0x64616572,0x18(%edx)
 8049f90:	c7 42 1c 20 66 69 72 	movl   $0x72696620,0x1c(%edx)
 8049f97:	c7 42 20 73 74 20 68 	movl   $0x68207473,0x20(%edx)
 8049f9e:	c7 42 24 65 61 64 65 	movl   $0x65646165,0x24(%edx)
 8049fa5:	c7 42 28 72 20 66 72 	movl   $0x72662072,0x28(%edx)
 8049fac:	c7 42 2c 6f 6d 20 73 	movl   $0x73206d6f,0x2c(%edx)
 8049fb3:	c7 42 30 65 72 76 65 	movl   $0x65767265,0x30(%edx)
 8049fba:	66 c7 42 34 72 00    	movw   $0x72,0x34(%edx)
 8049fc0:	8b 44 24 2c          	mov    0x2c(%esp),%eax
 8049fc4:	89 04 24             	mov    %eax,(%esp)
 8049fc7:	e8 34 ea ff ff       	call   8048a00 <close@plt>
 8049fcc:	b8 ff ff ff ff       	mov    $0xffffffff,%eax
 8049fd1:	e9 11 02 00 00       	jmp    804a1e7 <submitr+0x7ba>
 8049fd6:	8d 84 24 54 80 00 00 	lea    0x8054(%esp),%eax
 8049fdd:	89 44 24 10          	mov    %eax,0x10(%esp)
 8049fe1:	8d 44 24 44          	lea    0x44(%esp),%eax
 8049fe5:	89 44 24 0c          	mov    %eax,0xc(%esp)
 8049fe9:	8d 84 24 54 60 00 00 	lea    0x6054(%esp),%eax
 8049ff0:	89 44 24 08          	mov    %eax,0x8(%esp)
 8049ff4:	c7 44 24 04 17 b2 04 	movl   $0x804b217,0x4(%esp)
 8049ffb:	08 
 8049ffc:	8d 84 24 54 20 00 00 	lea    0x2054(%esp),%eax
 804a003:	89 04 24             	mov    %eax,(%esp)
 804a006:	e8 45 e9 ff ff       	call   8048950 <__isoc99_sscanf@plt>
 804a00b:	8b 44 24 44          	mov    0x44(%esp),%eax
 804a00f:	3d c8 00 00 00       	cmp    $0xc8,%eax
 804a014:	0f 84 d3 00 00 00    	je     804a0ed <submitr+0x6c0>
 804a01a:	8d 94 24 54 80 00 00 	lea    0x8054(%esp),%edx
 804a021:	89 54 24 14          	mov    %edx,0x14(%esp)
 804a025:	89 44 24 10          	mov    %eax,0x10(%esp)
 804a029:	c7 44 24 0c 44 b1 04 	movl   $0x804b144,0xc(%esp)
 804a030:	08 
 804a031:	c7 44 24 08 ff ff ff 	movl   $0xffffffff,0x8(%esp)
 804a038:	ff 
 804a039:	c7 44 24 04 01 00 00 	movl   $0x1,0x4(%esp)
 804a040:	00 
 804a041:	8b 54 24 28          	mov    0x28(%esp),%edx
 804a045:	89 14 24             	mov    %edx,(%esp)
 804a048:	e8 d3 e9 ff ff       	call   8048a20 <__sprintf_chk@plt>
 804a04d:	8b 44 24 2c          	mov    0x2c(%esp),%eax
 804a051:	89 04 24             	mov    %eax,(%esp)
 804a054:	e8 a7 e9 ff ff       	call   8048a00 <close@plt>
 804a059:	b8 ff ff ff ff       	mov    $0xffffffff,%eax
 804a05e:	e9 84 01 00 00       	jmp    804a1e7 <submitr+0x7ba>
 804a063:	b9 00 20 00 00       	mov    $0x2000,%ecx
 804a068:	8d 94 24 54 20 00 00 	lea    0x2054(%esp),%edx
 804a06f:	8d 44 24 48          	lea    0x48(%esp),%eax
 804a073:	e8 68 f8 ff ff       	call   80498e0 <rio_readlineb>
 804a078:	85 c0                	test   %eax,%eax
 804a07a:	7f 71                	jg     804a0ed <submitr+0x6c0>
 804a07c:	8b 54 24 28          	mov    0x28(%esp),%edx
 804a080:	c7 02 45 72 72 6f    	movl   $0x6f727245,(%edx)
 804a086:	c7 42 04 72 3a 20 43 	movl   $0x43203a72,0x4(%edx)
 804a08d:	c7 42 08 6c 69 65 6e 	movl   $0x6e65696c,0x8(%edx)
 804a094:	c7 42 0c 74 20 75 6e 	movl   $0x6e752074,0xc(%edx)
 804a09b:	c7 42 10 61 62 6c 65 	movl   $0x656c6261,0x10(%edx)
 804a0a2:	c7 42 14 20 74 6f 20 	movl   $0x206f7420,0x14(%edx)
 804a0a9:	c7 42 18 72 65 61 64 	movl   $0x64616572,0x18(%edx)
 804a0b0:	c7 42 1c 20 68 65 61 	movl   $0x61656820,0x1c(%edx)
 804a0b7:	c7 42 20 64 65 72 73 	movl   $0x73726564,0x20(%edx)
 804a0be:	c7 42 24 20 66 72 6f 	movl   $0x6f726620,0x24(%edx)
 804a0c5:	c7 42 28 6d 20 73 65 	movl   $0x6573206d,0x28(%edx)
 804a0cc:	c7 42 2c 72 76 65 72 	movl   $0x72657672,0x2c(%edx)
 804a0d3:	c6 42 30 00          	movb   $0x0,0x30(%edx)
 804a0d7:	8b 44 24 2c          	mov    0x2c(%esp),%eax
 804a0db:	89 04 24             	mov    %eax,(%esp)
 804a0de:	e8 1d e9 ff ff       	call   8048a00 <close@plt>
 804a0e3:	b8 ff ff ff ff       	mov    $0xffffffff,%eax
 804a0e8:	e9 fa 00 00 00       	jmp    804a1e7 <submitr+0x7ba>
 804a0ed:	80 bc 24 54 20 00 00 	cmpb   $0xd,0x2054(%esp)
 804a0f4:	0d 
 804a0f5:	0f 85 68 ff ff ff    	jne    804a063 <submitr+0x636>
 804a0fb:	80 bc 24 55 20 00 00 	cmpb   $0xa,0x2055(%esp)
 804a102:	0a 
 804a103:	0f 85 5a ff ff ff    	jne    804a063 <submitr+0x636>
 804a109:	80 bc 24 56 20 00 00 	cmpb   $0x0,0x2056(%esp)
 804a110:	00 
 804a111:	0f 85 4c ff ff ff    	jne    804a063 <submitr+0x636>
 804a117:	b9 00 20 00 00       	mov    $0x2000,%ecx
 804a11c:	8d 94 24 54 20 00 00 	lea    0x2054(%esp),%edx
 804a123:	8d 44 24 48          	lea    0x48(%esp),%eax
 804a127:	e8 b4 f7 ff ff       	call   80498e0 <rio_readlineb>
 804a12c:	85 c0                	test   %eax,%eax
 804a12e:	7f 78                	jg     804a1a8 <submitr+0x77b>
 804a130:	8b 54 24 28          	mov    0x28(%esp),%edx
 804a134:	c7 02 45 72 72 6f    	movl   $0x6f727245,(%edx)
 804a13a:	c7 42 04 72 3a 20 43 	movl   $0x43203a72,0x4(%edx)
 804a141:	c7 42 08 6c 69 65 6e 	movl   $0x6e65696c,0x8(%edx)
 804a148:	c7 42 0c 74 20 75 6e 	movl   $0x6e752074,0xc(%edx)
 804a14f:	c7 42 10 61 62 6c 65 	movl   $0x656c6261,0x10(%edx)
 804a156:	c7 42 14 20 74 6f 20 	movl   $0x206f7420,0x14(%edx)
 804a15d:	c7 42 18 72 65 61 64 	movl   $0x64616572,0x18(%edx)
 804a164:	c7 42 1c 20 73 74 61 	movl   $0x61747320,0x1c(%edx)
 804a16b:	c7 42 20 74 75 73 20 	movl   $0x20737574,0x20(%edx)
 804a172:	c7 42 24 6d 65 73 73 	movl   $0x7373656d,0x24(%edx)
 804a179:	c7 42 28 61 67 65 20 	movl   $0x20656761,0x28(%edx)
 804a180:	c7 42 2c 66 72 6f 6d 	movl   $0x6d6f7266,0x2c(%edx)
 804a187:	c7 42 30 20 73 65 72 	movl   $0x72657320,0x30(%edx)
 804a18e:	c7 42 34 76 65 72 00 	movl   $0x726576,0x34(%edx)
 804a195:	8b 44 24 2c          	mov    0x2c(%esp),%eax
 804a199:	89 04 24             	mov    %eax,(%esp)
 804a19c:	e8 5f e8 ff ff       	call   8048a00 <close@plt>
 804a1a1:	b8 ff ff ff ff       	mov    $0xffffffff,%eax
 804a1a6:	eb 3f                	jmp    804a1e7 <submitr+0x7ba>
 804a1a8:	8d 84 24 54 20 00 00 	lea    0x2054(%esp),%eax
 804a1af:	89 44 24 04          	mov    %eax,0x4(%esp)
 804a1b3:	8b 54 24 28          	mov    0x28(%esp),%edx
 804a1b7:	89 14 24             	mov    %edx,(%esp)
 804a1ba:	e8 e1 e6 ff ff       	call   80488a0 <strcpy@plt>
 804a1bf:	8b 44 24 2c          	mov    0x2c(%esp),%eax
 804a1c3:	89 04 24             	mov    %eax,(%esp)
 804a1c6:	e8 35 e8 ff ff       	call   8048a00 <close@plt>
 804a1cb:	b8 ff ff ff ff       	mov    $0xffffffff,%eax
 804a1d0:	8b 54 24 28          	mov    0x28(%esp),%edx
 804a1d4:	80 3a 4f             	cmpb   $0x4f,(%edx)
 804a1d7:	75 0e                	jne    804a1e7 <submitr+0x7ba>
 804a1d9:	80 7a 01 4b          	cmpb   $0x4b,0x1(%edx)
 804a1dd:	75 08                	jne    804a1e7 <submitr+0x7ba>
 804a1df:	80 7a 02 01          	cmpb   $0x1,0x2(%edx)
 804a1e3:	19 c0                	sbb    %eax,%eax
 804a1e5:	f7 d0                	not    %eax
 804a1e7:	8b 8c 24 6c a0 00 00 	mov    0xa06c(%esp),%ecx
 804a1ee:	65 33 0d 14 00 00 00 	xor    %gs:0x14,%ecx
 804a1f5:	74 78                	je     804a26f <submitr+0x842>
 804a1f7:	eb 71                	jmp    804a26a <submitr+0x83d>
 804a1f9:	8d 84 24 54 40 00 00 	lea    0x4054(%esp),%eax
 804a200:	89 44 24 1c          	mov    %eax,0x1c(%esp)
 804a204:	8b 44 24 38          	mov    0x38(%esp),%eax
 804a208:	89 44 24 18          	mov    %eax,0x18(%esp)
 804a20c:	8b 54 24 34          	mov    0x34(%esp),%edx
 804a210:	89 54 24 14          	mov    %edx,0x14(%esp)
 804a214:	8b 4c 24 30          	mov    0x30(%esp),%ecx
 804a218:	89 4c 24 10          	mov    %ecx,0x10(%esp)
 804a21c:	c7 44 24 0c 74 b1 04 	movl   $0x804b174,0xc(%esp)
 804a223:	08 
 804a224:	c7 44 24 08 00 20 00 	movl   $0x2000,0x8(%esp)
 804a22b:	00 
 804a22c:	c7 44 24 04 01 00 00 	movl   $0x1,0x4(%esp)
 804a233:	00 
 804a234:	8d bc 24 54 20 00 00 	lea    0x2054(%esp),%edi
 804a23b:	89 3c 24             	mov    %edi,(%esp)
 804a23e:	e8 dd e7 ff ff       	call   8048a20 <__sprintf_chk@plt>
 804a243:	b8 00 00 00 00       	mov    $0x0,%eax
 804a248:	b9 ff ff ff ff       	mov    $0xffffffff,%ecx
 804a24d:	f2 ae                	repnz scas %es:(%edi),%al
 804a24f:	f7 d1                	not    %ecx
 804a251:	8d 79 ff             	lea    -0x1(%ecx),%edi
 804a254:	89 fb                	mov    %edi,%ebx
 804a256:	8d b4 24 54 20 00 00 	lea    0x2054(%esp),%esi
 804a25d:	85 ff                	test   %edi,%edi
 804a25f:	0f 85 2d fc ff ff    	jne    8049e92 <submitr+0x465>
 804a265:	e9 c1 fc ff ff       	jmp    8049f2b <submitr+0x4fe>
 804a26a:	e8 11 e6 ff ff       	call   8048880 <__stack_chk_fail@plt>
 804a26f:	81 c4 7c a0 00 00    	add    $0xa07c,%esp
 804a275:	5b                   	pop    %ebx
 804a276:	5e                   	pop    %esi
 804a277:	5f                   	pop    %edi
 804a278:	5d                   	pop    %ebp
 804a279:	c3                   	ret    

0804a27a <init_timeout>:
 804a27a:	53                   	push   %ebx
 804a27b:	83 ec 18             	sub    $0x18,%esp
 804a27e:	8b 5c 24 20          	mov    0x20(%esp),%ebx
 804a282:	85 db                	test   %ebx,%ebx
 804a284:	74 26                	je     804a2ac <init_timeout+0x32>
 804a286:	c7 44 24 04 f9 99 04 	movl   $0x80499f9,0x4(%esp)
 804a28d:	08 
 804a28e:	c7 04 24 0e 00 00 00 	movl   $0xe,(%esp)
 804a295:	e8 b6 e5 ff ff       	call   8048850 <signal@plt>
 804a29a:	85 db                	test   %ebx,%ebx
 804a29c:	b8 00 00 00 00       	mov    $0x0,%eax
 804a2a1:	0f 48 d8             	cmovs  %eax,%ebx
 804a2a4:	89 1c 24             	mov    %ebx,(%esp)
 804a2a7:	e8 c4 e5 ff ff       	call   8048870 <alarm@plt>
 804a2ac:	83 c4 18             	add    $0x18,%esp
 804a2af:	5b                   	pop    %ebx
 804a2b0:	c3                   	ret    

0804a2b1 <init_driver>:
 804a2b1:	57                   	push   %edi
 804a2b2:	56                   	push   %esi
 804a2b3:	53                   	push   %ebx
 804a2b4:	83 ec 40             	sub    $0x40,%esp
 804a2b7:	8b 74 24 50          	mov    0x50(%esp),%esi
 804a2bb:	65 a1 14 00 00 00    	mov    %gs:0x14,%eax
 804a2c1:	89 44 24 3c          	mov    %eax,0x3c(%esp)
 804a2c5:	31 c0                	xor    %eax,%eax
 804a2c7:	c7 44 24 04 01 00 00 	movl   $0x1,0x4(%esp)
 804a2ce:	00 
 804a2cf:	c7 04 24 0d 00 00 00 	movl   $0xd,(%esp)
 804a2d6:	e8 75 e5 ff ff       	call   8048850 <signal@plt>
 804a2db:	c7 44 24 04 01 00 00 	movl   $0x1,0x4(%esp)
 804a2e2:	00 
 804a2e3:	c7 04 24 1d 00 00 00 	movl   $0x1d,(%esp)
 804a2ea:	e8 61 e5 ff ff       	call   8048850 <signal@plt>
 804a2ef:	c7 44 24 04 01 00 00 	movl   $0x1,0x4(%esp)
 804a2f6:	00 
 804a2f7:	c7 04 24 1d 00 00 00 	movl   $0x1d,(%esp)
 804a2fe:	e8 4d e5 ff ff       	call   8048850 <signal@plt>
 804a303:	c7 44 24 08 00 00 00 	movl   $0x0,0x8(%esp)
 804a30a:	00 
 804a30b:	c7 44 24 04 01 00 00 	movl   $0x1,0x4(%esp)
 804a312:	00 
 804a313:	c7 04 24 02 00 00 00 	movl   $0x2,(%esp)
 804a31a:	e8 81 e6 ff ff       	call   80489a0 <socket@plt>
 804a31f:	89 c3                	mov    %eax,%ebx
 804a321:	85 c0                	test   %eax,%eax
 804a323:	79 4e                	jns    804a373 <init_driver+0xc2>
 804a325:	c7 06 45 72 72 6f    	movl   $0x6f727245,(%esi)
 804a32b:	c7 46 04 72 3a 20 43 	movl   $0x43203a72,0x4(%esi)
 804a332:	c7 46 08 6c 69 65 6e 	movl   $0x6e65696c,0x8(%esi)
 804a339:	c7 46 0c 74 20 75 6e 	movl   $0x6e752074,0xc(%esi)
 804a340:	c7 46 10 61 62 6c 65 	movl   $0x656c6261,0x10(%esi)
 804a347:	c7 46 14 20 74 6f 20 	movl   $0x206f7420,0x14(%esi)
 804a34e:	c7 46 18 63 72 65 61 	movl   $0x61657263,0x18(%esi)
 804a355:	c7 46 1c 74 65 20 73 	movl   $0x73206574,0x1c(%esi)
 804a35c:	c7 46 20 6f 63 6b 65 	movl   $0x656b636f,0x20(%esi)
 804a363:	66 c7 46 24 74 00    	movw   $0x74,0x24(%esi)
 804a369:	b8 ff ff ff ff       	mov    $0xffffffff,%eax
 804a36e:	e9 0d 01 00 00       	jmp    804a480 <init_driver+0x1cf>
 804a373:	c7 04 24 28 b2 04 08 	movl   $0x804b228,(%esp)
 804a37a:	e8 51 e6 ff ff       	call   80489d0 <gethostbyname@plt>
 804a37f:	85 c0                	test   %eax,%eax
 804a381:	75 3a                	jne    804a3bd <init_driver+0x10c>
 804a383:	c7 44 24 10 28 b2 04 	movl   $0x804b228,0x10(%esp)
 804a38a:	08 
 804a38b:	c7 44 24 0c c0 b1 04 	movl   $0x804b1c0,0xc(%esp)
 804a392:	08 
 804a393:	c7 44 24 08 ff ff ff 	movl   $0xffffffff,0x8(%esp)
 804a39a:	ff 
 804a39b:	c7 44 24 04 01 00 00 	movl   $0x1,0x4(%esp)
 804a3a2:	00 
 804a3a3:	89 34 24             	mov    %esi,(%esp)
 804a3a6:	e8 75 e6 ff ff       	call   8048a20 <__sprintf_chk@plt>
 804a3ab:	89 1c 24             	mov    %ebx,(%esp)
 804a3ae:	e8 4d e6 ff ff       	call   8048a00 <close@plt>
 804a3b3:	b8 ff ff ff ff       	mov    $0xffffffff,%eax
 804a3b8:	e9 c3 00 00 00       	jmp    804a480 <init_driver+0x1cf>
 804a3bd:	8d 7c 24 2c          	lea    0x2c(%esp),%edi
 804a3c1:	c7 44 24 2c 00 00 00 	movl   $0x0,0x2c(%esp)
 804a3c8:	00 
 804a3c9:	c7 44 24 30 00 00 00 	movl   $0x0,0x30(%esp)
 804a3d0:	00 
 804a3d1:	c7 44 24 34 00 00 00 	movl   $0x0,0x34(%esp)
 804a3d8:	00 
 804a3d9:	c7 44 24 38 00 00 00 	movl   $0x0,0x38(%esp)
 804a3e0:	00 
 804a3e1:	66 c7 44 24 2c 02 00 	movw   $0x2,0x2c(%esp)
 804a3e8:	c7 44 24 0c 0c 00 00 	movl   $0xc,0xc(%esp)
 804a3ef:	00 
 804a3f0:	8b 50 0c             	mov    0xc(%eax),%edx
 804a3f3:	89 54 24 08          	mov    %edx,0x8(%esp)
 804a3f7:	8b 40 10             	mov    0x10(%eax),%eax
 804a3fa:	8b 00                	mov    (%eax),%eax
 804a3fc:	89 44 24 04          	mov    %eax,0x4(%esp)
 804a400:	8d 44 24 30          	lea    0x30(%esp),%eax
 804a404:	89 04 24             	mov    %eax,(%esp)
 804a407:	e8 d4 e4 ff ff       	call   80488e0 <__memmove_chk@plt>
 804a40c:	66 c7 44 24 2e 3b 6e 	movw   $0x6e3b,0x2e(%esp)
 804a413:	c7 44 24 08 10 00 00 	movl   $0x10,0x8(%esp)
 804a41a:	00 
 804a41b:	89 7c 24 04          	mov    %edi,0x4(%esp)
 804a41f:	89 1c 24             	mov    %ebx,(%esp)
 804a422:	e8 c9 e5 ff ff       	call   80489f0 <connect@plt>
 804a427:	85 c0                	test   %eax,%eax
 804a429:	79 3f                	jns    804a46a <init_driver+0x1b9>
 804a42b:	c7 44 24 14 6e 3b 00 	movl   $0x3b6e,0x14(%esp)
 804a432:	00 
 804a433:	c7 44 24 10 28 b2 04 	movl   $0x804b228,0x10(%esp)
 804a43a:	08 
 804a43b:	c7 44 24 0c e4 b1 04 	movl   $0x804b1e4,0xc(%esp)
 804a442:	08 
 804a443:	c7 44 24 08 ff ff ff 	movl   $0xffffffff,0x8(%esp)
 804a44a:	ff 
 804a44b:	c7 44 24 04 01 00 00 	movl   $0x1,0x4(%esp)
 804a452:	00 
 804a453:	89 34 24             	mov    %esi,(%esp)
 804a456:	e8 c5 e5 ff ff       	call   8048a20 <__sprintf_chk@plt>
 804a45b:	89 1c 24             	mov    %ebx,(%esp)
 804a45e:	e8 9d e5 ff ff       	call   8048a00 <close@plt>
 804a463:	b8 ff ff ff ff       	mov    $0xffffffff,%eax
 804a468:	eb 16                	jmp    804a480 <init_driver+0x1cf>
 804a46a:	89 1c 24             	mov    %ebx,(%esp)
 804a46d:	e8 8e e5 ff ff       	call   8048a00 <close@plt>
 804a472:	66 c7 06 4f 4b       	movw   $0x4b4f,(%esi)
 804a477:	c6 46 02 00          	movb   $0x0,0x2(%esi)
 804a47b:	b8 00 00 00 00       	mov    $0x0,%eax
 804a480:	8b 54 24 3c          	mov    0x3c(%esp),%edx
 804a484:	65 33 15 14 00 00 00 	xor    %gs:0x14,%edx
 804a48b:	74 05                	je     804a492 <init_driver+0x1e1>
 804a48d:	e8 ee e3 ff ff       	call   8048880 <__stack_chk_fail@plt>
 804a492:	83 c4 40             	add    $0x40,%esp
 804a495:	5b                   	pop    %ebx
 804a496:	5e                   	pop    %esi
 804a497:	5f                   	pop    %edi
 804a498:	c3                   	ret    

0804a499 <driver_post>:
 804a499:	53                   	push   %ebx
 804a49a:	83 ec 28             	sub    $0x28,%esp
 804a49d:	8b 44 24 30          	mov    0x30(%esp),%eax
 804a4a1:	8b 54 24 34          	mov    0x34(%esp),%edx
 804a4a5:	8b 5c 24 3c          	mov    0x3c(%esp),%ebx
 804a4a9:	83 7c 24 38 00       	cmpl   $0x0,0x38(%esp)
 804a4ae:	74 28                	je     804a4d8 <driver_post+0x3f>
 804a4b0:	89 54 24 08          	mov    %edx,0x8(%esp)
 804a4b4:	c7 44 24 04 3d b2 04 	movl   $0x804b23d,0x4(%esp)
 804a4bb:	08 
 804a4bc:	c7 04 24 01 00 00 00 	movl   $0x1,(%esp)
 804a4c3:	e8 c8 e4 ff ff       	call   8048990 <__printf_chk@plt>
 804a4c8:	66 c7 03 4f 4b       	movw   $0x4b4f,(%ebx)
 804a4cd:	c6 43 02 00          	movb   $0x0,0x2(%ebx)
 804a4d1:	b8 00 00 00 00       	mov    $0x0,%eax
 804a4d6:	eb 49                	jmp    804a521 <driver_post+0x88>
 804a4d8:	85 c0                	test   %eax,%eax
 804a4da:	74 37                	je     804a513 <driver_post+0x7a>
 804a4dc:	80 38 00             	cmpb   $0x0,(%eax)
 804a4df:	74 32                	je     804a513 <driver_post+0x7a>
 804a4e1:	89 5c 24 18          	mov    %ebx,0x18(%esp)
 804a4e5:	89 54 24 14          	mov    %edx,0x14(%esp)
 804a4e9:	c7 44 24 10 54 b2 04 	movl   $0x804b254,0x10(%esp)
 804a4f0:	08 
 804a4f1:	89 44 24 0c          	mov    %eax,0xc(%esp)
 804a4f5:	c7 44 24 08 5f b2 04 	movl   $0x804b25f,0x8(%esp)
 804a4fc:	08 
 804a4fd:	c7 44 24 04 6e 3b 00 	movl   $0x3b6e,0x4(%esp)
 804a504:	00 
 804a505:	c7 04 24 28 b2 04 08 	movl   $0x804b228,(%esp)
 804a50c:	e8 1c f5 ff ff       	call   8049a2d <submitr>
 804a511:	eb 0e                	jmp    804a521 <driver_post+0x88>
 804a513:	66 c7 03 4f 4b       	movw   $0x4b4f,(%ebx)
 804a518:	c6 43 02 00          	movb   $0x0,0x2(%ebx)
 804a51c:	b8 00 00 00 00       	mov    $0x0,%eax
 804a521:	83 c4 28             	add    $0x28,%esp
 804a524:	5b                   	pop    %ebx
 804a525:	c3                   	ret    
 804a526:	90                   	nop
 804a527:	90                   	nop
 804a528:	90                   	nop
 804a529:	90                   	nop
 804a52a:	90                   	nop
 804a52b:	90                   	nop
 804a52c:	90                   	nop
 804a52d:	90                   	nop
 804a52e:	90                   	nop
 804a52f:	90                   	nop

0804a530 <__libc_csu_init>:
 804a530:	55                   	push   %ebp
 804a531:	57                   	push   %edi
 804a532:	56                   	push   %esi
 804a533:	53                   	push   %ebx
 804a534:	e8 69 00 00 00       	call   804a5a2 <__i686.get_pc_thunk.bx>
 804a539:	81 c3 bb 2a 00 00    	add    $0x2abb,%ebx
 804a53f:	83 ec 1c             	sub    $0x1c,%esp
 804a542:	8b 6c 24 30          	mov    0x30(%esp),%ebp
 804a546:	8d bb 20 ff ff ff    	lea    -0xe0(%ebx),%edi
 804a54c:	e8 87 e2 ff ff       	call   80487d8 <_init>
 804a551:	8d 83 20 ff ff ff    	lea    -0xe0(%ebx),%eax
 804a557:	29 c7                	sub    %eax,%edi
 804a559:	c1 ff 02             	sar    $0x2,%edi
 804a55c:	85 ff                	test   %edi,%edi
 804a55e:	74 29                	je     804a589 <__libc_csu_init+0x59>
 804a560:	31 f6                	xor    %esi,%esi
 804a562:	8d b6 00 00 00 00    	lea    0x0(%esi),%esi
 804a568:	8b 44 24 38          	mov    0x38(%esp),%eax
 804a56c:	89 2c 24             	mov    %ebp,(%esp)
 804a56f:	89 44 24 08          	mov    %eax,0x8(%esp)
 804a573:	8b 44 24 34          	mov    0x34(%esp),%eax
 804a577:	89 44 24 04          	mov    %eax,0x4(%esp)
 804a57b:	ff 94 b3 20 ff ff ff 	call   *-0xe0(%ebx,%esi,4)
 804a582:	83 c6 01             	add    $0x1,%esi
 804a585:	39 fe                	cmp    %edi,%esi
 804a587:	75 df                	jne    804a568 <__libc_csu_init+0x38>
 804a589:	83 c4 1c             	add    $0x1c,%esp
 804a58c:	5b                   	pop    %ebx
 804a58d:	5e                   	pop    %esi
 804a58e:	5f                   	pop    %edi
 804a58f:	5d                   	pop    %ebp
 804a590:	c3                   	ret    
 804a591:	eb 0d                	jmp    804a5a0 <__libc_csu_fini>
 804a593:	90                   	nop
 804a594:	90                   	nop
 804a595:	90                   	nop
 804a596:	90                   	nop
 804a597:	90                   	nop
 804a598:	90                   	nop
 804a599:	90                   	nop
 804a59a:	90                   	nop
 804a59b:	90                   	nop
 804a59c:	90                   	nop
 804a59d:	90                   	nop
 804a59e:	90                   	nop
 804a59f:	90                   	nop

0804a5a0 <__libc_csu_fini>:
 804a5a0:	f3 c3                	repz ret 

0804a5a2 <__i686.get_pc_thunk.bx>:
 804a5a2:	8b 1c 24             	mov    (%esp),%ebx
 804a5a5:	c3                   	ret    
 804a5a6:	90                   	nop
 804a5a7:	90                   	nop
 804a5a8:	90                   	nop
 804a5a9:	90                   	nop
 804a5aa:	90                   	nop
 804a5ab:	90                   	nop
 804a5ac:	90                   	nop
 804a5ad:	90                   	nop
 804a5ae:	90                   	nop
 804a5af:	90                   	nop

0804a5b0 <__do_global_ctors_aux>:
 804a5b0:	55                   	push   %ebp
 804a5b1:	89 e5                	mov    %esp,%ebp
 804a5b3:	53                   	push   %ebx
 804a5b4:	83 ec 04             	sub    $0x4,%esp
 804a5b7:	a1 14 cf 04 08       	mov    0x804cf14,%eax
 804a5bc:	83 f8 ff             	cmp    $0xffffffff,%eax
 804a5bf:	74 13                	je     804a5d4 <__do_global_ctors_aux+0x24>
 804a5c1:	bb 14 cf 04 08       	mov    $0x804cf14,%ebx
 804a5c6:	66 90                	xchg   %ax,%ax
 804a5c8:	83 eb 04             	sub    $0x4,%ebx
 804a5cb:	ff d0                	call   *%eax
 804a5cd:	8b 03                	mov    (%ebx),%eax
 804a5cf:	83 f8 ff             	cmp    $0xffffffff,%eax
 804a5d2:	75 f4                	jne    804a5c8 <__do_global_ctors_aux+0x18>
 804a5d4:	83 c4 04             	add    $0x4,%esp
 804a5d7:	5b                   	pop    %ebx
 804a5d8:	5d                   	pop    %ebp
 804a5d9:	c3                   	ret    
 804a5da:	90                   	nop
 804a5db:	90                   	nop

Disassembly of section .fini:

0804a5dc <_fini>:
 804a5dc:	53                   	push   %ebx
 804a5dd:	83 ec 08             	sub    $0x8,%esp
 804a5e0:	e8 00 00 00 00       	call   804a5e5 <_fini+0x9>
 804a5e5:	5b                   	pop    %ebx
 804a5e6:	81 c3 0f 2a 00 00    	add    $0x2a0f,%ebx
 804a5ec:	e8 6f e4 ff ff       	call   8048a60 <__do_global_dtors_aux>
 804a5f1:	83 c4 08             	add    $0x8,%esp
 804a5f4:	5b                   	pop    %ebx
 804a5f5:	c3                   	ret    
